Archive member included to satisfy reference by file (symbol)

/usr/local/xenon/usr/lib/libxenon.a(argv.o)
                              /usr/local/xenon/lib/gcc/xenon/6.3.0/../../../../xenon/lib/../lib/crt1.o (__check_argv)
/usr/local/xenon/usr/lib/libxenon.a(startup_from_xell.o)
                              (_start)
/usr/local/xenon/usr/lib/libxenon.a(console.o)
                              main.o (console_init)
/usr/local/xenon/usr/lib/libxenon.a(input.o)
                              main.o (get_controller_data)
/usr/local/xenon/usr/lib/libxenon.a(newlib.o)
                              /usr/local/xenon/usr/lib/libxenon.a(console.o) (stdout_hook)
/usr/local/xenon/usr/lib/libxenon.a(xenon_syscalls.o)
                              /usr/local/xenon/usr/lib/libxenon.a(newlib.o) (__syscalls)
/usr/local/xenon/usr/lib/libxenon.a(lib_malloc.o)
                              main.o (kmem_init)
/usr/local/xenon/usr/lib/libxenon.a(atomic.o)
                              /usr/local/xenon/usr/lib/libxenon.a(startup_from_xell.o) (atomic_clearset)
/usr/local/xenon/usr/lib/libxenon.a(cache.o)
                              /usr/local/xenon/usr/lib/libxenon.a(console.o) (memdcbst)
/usr/local/xenon/usr/lib/libxenon.a(except.o)
                              /usr/local/xenon/usr/lib/libxenon.a(startup_from_xell.o) (secondary_lock)
/usr/local/xenon/usr/lib/libxenon.a(c_except.o)
                              /usr/local/xenon/usr/lib/libxenon.a(except.o) (crashdump)
/usr/local/xenon/usr/lib/libxenon.a(vm.o)
                              /usr/local/xenon/usr/lib/libxenon.a(except.o) (vm_segfault_handler)
/usr/local/xenon/usr/lib/libxenon.a(time.o)
                              /usr/local/xenon/usr/lib/libxenon.a(c_except.o) (delay)
/usr/local/xenon/usr/lib/libxenon.a(usbctrl.o)
                              /usr/local/xenon/usr/lib/libxenon.a(input.o) (usbctrl_set_rumble)
/usr/local/xenon/usr/lib/libxenon.a(usbd.o)
                              /usr/local/xenon/usr/lib/libxenon.a(usbctrl.o) (usb_open_pipe)
/usr/local/xenon/usr/lib/libxenon.a(usbdevs.o)
                              /usr/local/xenon/usr/lib/libxenon.a(usbd.o) (usb_find_driver)
/usr/local/xenon/usr/lib/libxenon.a(usbhid.o)
                              /usr/local/xenon/usr/lib/libxenon.a(usbdevs.o) (usbhid_driver)
/usr/local/xenon/usr/lib/libxenon.a(usbhub.o)
                              /usr/local/xenon/usr/lib/libxenon.a(usbd.o) (usb_scan)
/usr/local/xenon/usr/lib/libxenon.a(usbmain.o)
                              /usr/local/xenon/usr/lib/libxenon.a(xenon_syscalls.o) (usb_shutdown)
/usr/local/xenon/usr/lib/libxenon.a(tinyehci.o)
                              /usr/local/xenon/usr/lib/libxenon.a(usbmain.o) (USBStorage_Init)
/usr/local/xenon/usr/lib/libxenon.a(debug.o)
                              /usr/local/xenon/usr/lib/libxenon.a(xenon_syscalls.o) (data_breakpoint)
/usr/local/xenon/usr/lib/libxenon.a(xenon_smc.o)
                              main.o (xenon_smc_send_message)
/usr/local/xenon/usr/lib/libxenon.a(xenon_power.o)
                              /usr/local/xenon/usr/lib/libxenon.a(xenon_syscalls.o) (xenon_is_thread_task_running)
/usr/local/xenon/usr/lib/libxenon.a(xenon_uart.o)
                              /usr/local/xenon/usr/lib/libxenon.a(newlib.o) (putch)
/usr/local/xenon/usr/lib/libxenon.a(xenon_config.o)
                              /usr/local/xenon/usr/lib/libxenon.a(xenon_power.o) (xenon_config_init)
/usr/local/xenon/usr/lib/libxenon.a(xenos.o)
                              main.o (xenos_init)
/usr/local/xenon/usr/lib/libxenon.a(xenos_edid.o)
                              /usr/local/xenon/usr/lib/libxenon.a(xenos.o) (xenos_get_edid)
/usr/local/xenon/usr/lib/libxenon.a(enet.o)
                              /usr/local/xenon/usr/lib/libxenon.a(xenon_syscalls.o) (enet_quiesce)
/usr/local/xenon/usr/lib/libxenon.a(xb360.o)
                              /usr/local/xenon/usr/lib/libxenon.a(xenos.o) (xenon_get_XenosID)
/usr/local/xenon/usr/lib/libxenon.a(dummy.o)
                              /usr/local/xenon/usr/lib/libxenon.a(usbdevs.o) (dummy_driver)
/usr/local/xenon/usr/lib/libxenon.a(ohci.o)
                              /usr/local/xenon/usr/lib/libxenon.a(usbmain.o) (ohci_driver)
/usr/local/xenon/usr/lib/libxenon.a(usbdebug.o)
                              /usr/local/xenon/usr/lib/libxenon.a(usbhub.o) (usb_dbg_dumpportstatus)
/usr/local/xenon/usr/lib/libxenon.a(usb_os.o)
                              /usr/local/xenon/usr/lib/libxenon.a(tinyehci.o) (ehci_maligned)
/usr/local/xenon/usr/lib/libxenon.a(xenon_gpio.o)
                              /usr/local/xenon/usr/lib/libxenon.a(enet.o) (xenon_gpio_control)
/usr/local/xenon/usr/lib/libxenon.a(cpusleep.o)
                              /usr/local/xenon/usr/lib/libxenon.a(xenon_power.o) (cpusleep)
/usr/local/xenon/usr/lib/libxenon.a(xenon_secotp.o)
                              /usr/local/xenon/usr/lib/libxenon.a(xb360.o) (xenon_secotp_read_line)
/usr/local/xenon/usr/lib/libxenon.a(xenon_sfcx.o)
                              /usr/local/xenon/usr/lib/libxenon.a(xb360.o) (sfcx_readreg)
/usr/local/xenon/usr/lib/libxenon.a(mem.o)
                              /usr/local/xenon/usr/lib/libxenon.a(enet.o) (mem_malloc)
/usr/local/xenon/usr/lib/libxenon.a(pbuf.o)
                              /usr/local/xenon/usr/lib/libxenon.a(enet.o) (pbuf_free)
/usr/local/xenon/usr/lib/libxenon.a(stats.o)
                              /usr/local/xenon/usr/lib/libxenon.a(enet.o) (lwip_stats)
/usr/local/xenon/usr/lib/libxenon.a(tcp.o)
                              /usr/local/xenon/usr/lib/libxenon.a(pbuf.o) (tcp_segs_free)
/usr/local/xenon/usr/lib/libxenon.a(ip.o)
                              /usr/local/xenon/usr/lib/libxenon.a(tcp.o) (ip_route)
/usr/local/xenon/usr/lib/libxenon.a(ip_frag.o)
                              /usr/local/xenon/usr/lib/libxenon.a(ip.o) (ip_reass)
/usr/local/xenon/usr/lib/libxenon.a(tcp_out.o)
                              /usr/local/xenon/usr/lib/libxenon.a(tcp.o) (tcp_enqueue_flags)
/usr/local/xenon/usr/lib/libxenon.a(udp.o)
                              /usr/local/xenon/usr/lib/libxenon.a(ip.o) (udp_input)
/usr/local/xenon/usr/lib/libxenon.a(etharp.o)
                              /usr/local/xenon/usr/lib/libxenon.a(enet.o) (etharp_output)
/usr/local/xenon/usr/lib/libxenon.a(dhcp.o)
                              /usr/local/xenon/usr/lib/libxenon.a(etharp.o) (dhcp_arp_reply)
/usr/local/xenon/usr/lib/libxenon.a(raw.o)
                              /usr/local/xenon/usr/lib/libxenon.a(ip.o) (raw_input)
/usr/local/xenon/usr/lib/libxenon.a(timers.o)
                              /usr/local/xenon/usr/lib/libxenon.a(tcp.o) (tcp_timer_needed)
/usr/local/xenon/usr/lib/libxenon.a(hmac_sha1.o)
                              /usr/local/xenon/usr/lib/libxenon.a(xb360.o) (HMAC_SHA1_Init)
/usr/local/xenon/usr/lib/libxenon.a(rc4.o)
                              /usr/local/xenon/usr/lib/libxenon.a(xb360.o) (rc4_init)
/usr/local/xenon/usr/lib/libxenon.a(sha1.o)
                              /usr/local/xenon/usr/lib/libxenon.a(hmac_sha1.o) (SHA1_Init)
/usr/local/xenon/usr/lib/libxenon.a(lib_queue.o)
                              /usr/local/xenon/usr/lib/libxenon.a(ohci.o) (q_enqueue)
/usr/local/xenon/usr/lib/libxenon.a(tcp_in.o)
                              /usr/local/xenon/usr/lib/libxenon.a(ip.o) (tcp_input)
/usr/local/xenon/usr/lib/libxenon.a(inet_chksum.o)
                              /usr/local/xenon/usr/lib/libxenon.a(tcp_out.o) (inet_chksum_pseudo)
/usr/local/xenon/usr/lib/libxenon.a(memp.o)
                              /usr/local/xenon/usr/lib/libxenon.a(pbuf.o) (memp_malloc)
/usr/local/xenon/usr/lib/libxenon.a(netif.o)
                              /usr/local/xenon/usr/lib/libxenon.a(ip.o) (netif_list)
/usr/local/xenon/usr/lib/libxenon.a(ip_addr.o)
                              /usr/local/xenon/usr/lib/libxenon.a(ip.o) (ip4_addr_isbroadcast)
/usr/local/xenon/usr/lib/libxenon.a(icmp.o)
                              /usr/local/xenon/usr/lib/libxenon.a(ip.o) (icmp_input)
/usr/local/xenon/lib/gcc/xenon/6.3.0/32/libgcc.a(crtsavgpr.o)
                              /usr/local/xenon/usr/lib/libxenon.a(ip_frag.o) (_savegpr_14)
/usr/local/xenon/lib/gcc/xenon/6.3.0/32/libgcc.a(crtresxgpr.o)
                              /usr/local/xenon/usr/lib/libxenon.a(ip_frag.o) (_restgpr_14_x)
/usr/local/xenon/lib/gcc/xenon/6.3.0/32/libgcc.a(unwind-dw2-fde-dip.o)
                              /usr/local/xenon/lib/gcc/xenon/6.3.0/../../../../xenon/lib/../lib/crt1.o (__register_frame)
/usr/local/xenon/xenon/lib/32/libc.a(lib_a-assert.o)
                              /usr/local/xenon/usr/lib/libxenon.a(xenon_syscalls.o) (__assert_func)
/usr/local/xenon/xenon/lib/32/libc.a(lib_a-errno.o)
                              /usr/local/xenon/usr/lib/libxenon.a(newlib.o) (__errno)
/usr/local/xenon/xenon/lib/32/libc.a(lib_a-exit.o)
                              /usr/local/xenon/lib/gcc/xenon/6.3.0/../../../../xenon/lib/../lib/crt1.o (exit)
/usr/local/xenon/xenon/lib/32/libc.a(lib_a-fclose.o)
                              /usr/local/xenon/usr/lib/libxenon.a(xb360.o) (fclose)
/usr/local/xenon/xenon/lib/32/libc.a(lib_a-fflush.o)
                              /usr/local/xenon/xenon/lib/32/libc.a(lib_a-fclose.o) (__sflush_r)
/usr/local/xenon/xenon/lib/32/libc.a(lib_a-findfp.o)
                              /usr/local/xenon/xenon/lib/32/libc.a(lib_a-fclose.o) (__sinit)
/usr/local/xenon/xenon/lib/32/libc.a(lib_a-fiprintf.o)
                              /usr/local/xenon/xenon/lib/32/libc.a(lib_a-assert.o) (fiprintf)
/usr/local/xenon/xenon/lib/32/libc.a(lib_a-fopen.o)
                              /usr/local/xenon/usr/lib/libxenon.a(xb360.o) (fopen)
/usr/local/xenon/xenon/lib/32/libc.a(lib_a-fread.o)
                              /usr/local/xenon/usr/lib/libxenon.a(xb360.o) (fread)
/usr/local/xenon/xenon/lib/32/libc.a(lib_a-freer.o)
                              /usr/local/xenon/xenon/lib/32/libc.a(lib_a-fclose.o) (_free_r)
/usr/local/xenon/xenon/lib/32/libc.a(lib_a-fseek.o)
                              /usr/local/xenon/xenon/lib/32/libc.a(lib_a-fopen.o) (_fseek_r)
/usr/local/xenon/xenon/lib/32/libc.a(lib_a-fseeko.o)
                              /usr/local/xenon/xenon/lib/32/libc.a(lib_a-fseek.o) (_fseeko_r)
/usr/local/xenon/xenon/lib/32/libc.a(lib_a-fstatr.o)
                              /usr/local/xenon/xenon/lib/32/libc.a(lib_a-fseeko.o) (_fstat_r)
/usr/local/xenon/xenon/lib/32/libc.a(lib_a-ftell.o)
                              /usr/local/xenon/usr/lib/libxenon.a(xb360.o) (ftell)
/usr/local/xenon/xenon/lib/32/libc.a(lib_a-ftello.o)
                              /usr/local/xenon/xenon/lib/32/libc.a(lib_a-ftell.o) (_ftello_r)
/usr/local/xenon/xenon/lib/32/libc.a(lib_a-fwalk.o)
                              /usr/local/xenon/xenon/lib/32/libc.a(lib_a-findfp.o) (_fwalk)
/usr/local/xenon/xenon/lib/32/libc.a(lib_a-impure.o)
                              /usr/local/xenon/xenon/lib/32/libc.a(lib_a-exit.o) (_global_impure_ptr)
/usr/local/xenon/xenon/lib/32/libc.a(lib_a-locale.o)
                              /usr/local/xenon/usr/lib/libxenon.a(newlib.o) (__locale_ctype_ptr)
/usr/local/xenon/xenon/lib/32/libc.a(lib_a-makebuf.o)
                              /usr/local/xenon/xenon/lib/32/libc.a(lib_a-fseeko.o) (__smakebuf_r)
/usr/local/xenon/xenon/lib/32/libc.a(lib_a-malign.o)
                              /usr/local/xenon/usr/lib/libxenon.a(enet.o) (memalign)
/usr/local/xenon/xenon/lib/32/libc.a(lib_a-malignr.o)
                              /usr/local/xenon/xenon/lib/32/libc.a(lib_a-malign.o) (_memalign_r)
/usr/local/xenon/xenon/lib/32/libc.a(lib_a-malloc.o)
                              /usr/local/xenon/usr/lib/libxenon.a(newlib.o) (malloc)
/usr/local/xenon/xenon/lib/32/libc.a(lib_a-mallocr.o)
                              /usr/local/xenon/xenon/lib/32/libc.a(lib_a-findfp.o) (_malloc_r)
/usr/local/xenon/xenon/lib/32/libc.a(lib_a-mbtowc_r.o)
                              /usr/local/xenon/xenon/lib/32/libc.a(lib_a-locale.o) (__ascii_mbtowc)
/usr/local/xenon/xenon/lib/32/libc.a(lib_a-memcmp.o)
                              /usr/local/xenon/usr/lib/libxenon.a(newlib.o) (memcmp)
/usr/local/xenon/xenon/lib/32/libc.a(lib_a-memcpy.o)
                              /usr/local/xenon/usr/lib/libxenon.a(console.o) (memcpy)
/usr/local/xenon/xenon/lib/32/libc.a(lib_a-memset.o)
                              /usr/local/xenon/usr/lib/libxenon.a(console.o) (memset)
/usr/local/xenon/xenon/lib/32/libc.a(lib_a-openr.o)
                              /usr/local/xenon/xenon/lib/32/libc.a(lib_a-fopen.o) (_open_r)
/usr/local/xenon/xenon/lib/32/libc.a(lib_a-printf.o)
                              main.o (printf)
/usr/local/xenon/xenon/lib/32/libc.a(lib_a-putchar.o)
                              main.o (putchar)
/usr/local/xenon/xenon/lib/32/libc.a(lib_a-puts.o)
                              main.o (puts)
/usr/local/xenon/xenon/lib/32/libc.a(lib_a-reent.o)
                              /usr/local/xenon/xenon/lib/32/libc.a(lib_a-fstatr.o) (errno)
/usr/local/xenon/xenon/lib/32/libc.a(lib_a-refill.o)
                              /usr/local/xenon/xenon/lib/32/libc.a(lib_a-fread.o) (__srefill_r)
/usr/local/xenon/xenon/lib/32/libc.a(lib_a-sbrkr.o)
                              /usr/local/xenon/xenon/lib/32/libc.a(lib_a-freer.o) (_sbrk_r)
/usr/local/xenon/xenon/lib/32/libc.a(lib_a-sprintf.o)
                              /usr/local/xenon/usr/lib/libxenon.a(xenon_syscalls.o) (sprintf)
/usr/local/xenon/xenon/lib/32/libc.a(lib_a-stdio.o)
                              /usr/local/xenon/xenon/lib/32/libc.a(lib_a-findfp.o) (__sread)
/usr/local/xenon/xenon/lib/32/libc.a(lib_a-strcat.o)
                              /usr/local/xenon/usr/lib/libxenon.a(c_except.o) (strcat)
/usr/local/xenon/xenon/lib/32/libc.a(lib_a-strchr.o)
                              /usr/local/xenon/usr/lib/libxenon.a(newlib.o) (strchr)
/usr/local/xenon/xenon/lib/32/libc.a(lib_a-strcmp.o)
                              /usr/local/xenon/usr/lib/libxenon.a(newlib.o) (strcmp)
/usr/local/xenon/xenon/lib/32/libc.a(lib_a-strcpy.o)
                              /usr/local/xenon/usr/lib/libxenon.a(xenon_syscalls.o) (strcpy)
/usr/local/xenon/xenon/lib/32/libc.a(lib_a-strlen.o)
                              /usr/local/xenon/usr/lib/libxenon.a(newlib.o) (strlen)
/usr/local/xenon/xenon/lib/32/libc.a(lib_a-strncmp.o)
                              /usr/local/xenon/usr/lib/libxenon.a(newlib.o) (strncmp)
/usr/local/xenon/xenon/lib/32/libc.a(lib_a-strncpy.o)
                              /usr/local/xenon/usr/lib/libxenon.a(newlib.o) (strncpy)
/usr/local/xenon/xenon/lib/32/libc.a(lib_a-strnlen.o)
                              /usr/local/xenon/usr/lib/libxenon.a(newlib.o) (strnlen)
/usr/local/xenon/xenon/lib/32/libc.a(lib_a-strrchr.o)
                              /usr/local/xenon/usr/lib/libxenon.a(newlib.o) (strrchr)
/usr/local/xenon/xenon/lib/32/libc.a(lib_a-svfprintf.o)
                              /usr/local/xenon/xenon/lib/32/libc.a(lib_a-sprintf.o) (_svfprintf_r)
/usr/local/xenon/xenon/lib/32/libc.a(lib_a-vfiprintf.o)
                              /usr/local/xenon/xenon/lib/32/libc.a(lib_a-fiprintf.o) (_vfiprintf_r)
/usr/local/xenon/xenon/lib/32/libc.a(lib_a-vfprintf.o)
                              /usr/local/xenon/xenon/lib/32/libc.a(lib_a-printf.o) (_vfprintf_r)
/usr/local/xenon/xenon/lib/32/libc.a(lib_a-vsprintf.o)
                              /usr/local/xenon/usr/lib/libxenon.a(xenon_smc.o) (vsprintf)
/usr/local/xenon/xenon/lib/32/libc.a(lib_a-wctomb_r.o)
                              /usr/local/xenon/xenon/lib/32/libc.a(lib_a-locale.o) (__ascii_wctomb)
/usr/local/xenon/xenon/lib/32/libc.a(lib_a-writer.o)
                              /usr/local/xenon/xenon/lib/32/libc.a(lib_a-stdio.o) (_write_r)
/usr/local/xenon/xenon/lib/32/libc.a(lib_a-wsetup.o)
                              /usr/local/xenon/xenon/lib/32/libc.a(lib_a-vfiprintf.o) (__swsetup_r)
/usr/local/xenon/xenon/lib/32/libc.a(lib_a-__call_atexit.o)
                              /usr/local/xenon/xenon/lib/32/libc.a(lib_a-exit.o) (__call_exitprocs)
/usr/local/xenon/xenon/lib/32/libc.a(lib_a-closer.o)
                              /usr/local/xenon/xenon/lib/32/libc.a(lib_a-stdio.o) (_close_r)
/usr/local/xenon/xenon/lib/32/libc.a(lib_a-ctype_.o)
                              /usr/local/xenon/xenon/lib/32/libc.a(lib_a-locale.o) (_ctype_)
/usr/local/xenon/xenon/lib/32/libc.a(lib_a-dtoa.o)
                              /usr/local/xenon/xenon/lib/32/libc.a(lib_a-svfprintf.o) (_dtoa_r)
/usr/local/xenon/xenon/lib/32/libc.a(lib_a-flags.o)
                              /usr/local/xenon/xenon/lib/32/libc.a(lib_a-fopen.o) (__sflags)
/usr/local/xenon/xenon/lib/32/libc.a(lib_a-fputwc.o)
                              /usr/local/xenon/xenon/lib/32/libc.a(lib_a-vfiprintf.o) (_fputwc_r)
/usr/local/xenon/xenon/lib/32/libc.a(lib_a-fvwrite.o)
                              /usr/local/xenon/xenon/lib/32/libc.a(lib_a-puts.o) (__sfvwrite_r)
/usr/local/xenon/xenon/lib/32/libc.a(lib_a-isattyr.o)
                              /usr/local/xenon/xenon/lib/32/libc.a(lib_a-makebuf.o) (_isatty_r)
/usr/local/xenon/xenon/lib/32/libc.a(lib_a-localeconv.o)
                              /usr/local/xenon/xenon/lib/32/libc.a(lib_a-svfprintf.o) (_localeconv_r)
/usr/local/xenon/xenon/lib/32/libc.a(lib_a-lseekr.o)
                              /usr/local/xenon/xenon/lib/32/libc.a(lib_a-stdio.o) (_lseek_r)
/usr/local/xenon/xenon/lib/32/libc.a(lib_a-memchr.o)
                              /usr/local/xenon/xenon/lib/32/libc.a(lib_a-svfprintf.o) (memchr)
/usr/local/xenon/xenon/lib/32/libc.a(lib_a-memmove.o)
                              /usr/local/xenon/xenon/lib/32/libc.a(lib_a-fvwrite.o) (memmove)
/usr/local/xenon/xenon/lib/32/libc.a(lib_a-mprec.o)
                              /usr/local/xenon/xenon/lib/32/libc.a(lib_a-dtoa.o) (_Balloc)
/usr/local/xenon/xenon/lib/32/libc.a(lib_a-putc.o)
                              /usr/local/xenon/xenon/lib/32/libc.a(lib_a-putchar.o) (_putc_r)
/usr/local/xenon/xenon/lib/32/libc.a(lib_a-readr.o)
                              /usr/local/xenon/xenon/lib/32/libc.a(lib_a-stdio.o) (_read_r)
/usr/local/xenon/xenon/lib/32/libc.a(lib_a-reallocr.o)
                              /usr/local/xenon/xenon/lib/32/libc.a(lib_a-fvwrite.o) (_realloc_r)
/usr/local/xenon/xenon/lib/32/libc.a(lib_a-svfiprintf.o)
                              /usr/local/xenon/xenon/lib/32/libc.a(lib_a-svfprintf.o) (__ssprint_r)
/usr/local/xenon/xenon/lib/32/libc.a(lib_a-wbuf.o)
                              /usr/local/xenon/xenon/lib/32/libc.a(lib_a-fputwc.o) (__swbuf_r)
/usr/local/xenon/xenon/lib/32/libc.a(lib_a-wcrtomb.o)
                              /usr/local/xenon/xenon/lib/32/libc.a(lib_a-fputwc.o) (_wcrtomb_r)
/usr/local/xenon/xenon/lib/32/libc.a(lib_a-callocr.o)
                              /usr/local/xenon/xenon/lib/32/libc.a(lib_a-mprec.o) (_calloc_r)
/usr/local/xenon/lib/gcc/xenon/6.3.0/32/libgcc.a(_udivdi3.o)
                              /usr/local/xenon/xenon/lib/32/libc.a(lib_a-svfprintf.o) (__udivdi3)
/usr/local/xenon/lib/gcc/xenon/6.3.0/32/libgcc.a(_umoddi3.o)
                              /usr/local/xenon/xenon/lib/32/libc.a(lib_a-svfprintf.o) (__umoddi3)

Allocating common symbols
Common symbol       size              file

current_iphdr_src   0x4               /usr/local/xenon/usr/lib/libxenon.a(ip.o)
netif_list          0x4               /usr/local/xenon/usr/lib/libxenon.a(netif.o)
RFdev               0x4               /usr/local/xenon/usr/lib/libxenon.a(usbctrl.o)
console_oldbg       0x4               /usr/local/xenon/usr/lib/libxenon.a(console.o)
tcp_active_pcbs_changed
                    0x1               /usr/local/xenon/usr/lib/libxenon.a(tcp.o)
tcp_active_pcbs     0x4               /usr/local/xenon/usr/lib/libxenon.a(tcp.o)
udp_pcbs            0x4               /usr/local/xenon/usr/lib/libxenon.a(udp.o)
errno               0x4               /usr/local/xenon/xenon/lib/32/libc.a(lib_a-reent.o)
current_netif       0x4               /usr/local/xenon/usr/lib/libxenon.a(ip.o)
console_oldfg       0x4               /usr/local/xenon/usr/lib/libxenon.a(console.o)
tcp_ticks           0x4               /usr/local/xenon/usr/lib/libxenon.a(tcp.o)
tcp_listen_pcbs     0x4               /usr/local/xenon/usr/lib/libxenon.a(tcp.o)
current_iphdr_dest  0x4               /usr/local/xenon/usr/lib/libxenon.a(ip.o)
cnt                 0x4               /usr/local/xenon/usr/lib/libxenon.a(enet.o)
heap_ptr            0x4               /usr/local/xenon/usr/lib/libxenon.a(xenon_syscalls.o)
tcp_tmp_pcb         0x4               /usr/local/xenon/usr/lib/libxenon.a(tcp.o)
tcp_input_pcb       0x4               /usr/local/xenon/usr/lib/libxenon.a(tcp_in.o)
blockbuf            0x4               /usr/local/xenon/usr/lib/libxenon.a(xenon_sfcx.o)
current_header      0x4               /usr/local/xenon/usr/lib/libxenon.a(ip.o)
dhcp_rx_options_given
                    0xa               /usr/local/xenon/usr/lib/libxenon.a(dhcp.o)
tcp_bound_pcbs      0x4               /usr/local/xenon/usr/lib/libxenon.a(tcp.o)
kmempool            0xc               /usr/local/xenon/usr/lib/libxenon.a(lib_malloc.o)
usb_buses           0x10              /usr/local/xenon/usr/lib/libxenon.a(usbmain.o)
pbuf_free_ooseq_pending
                    0x1               /usr/local/xenon/usr/lib/libxenon.a(pbuf.o)
tcp_tw_pcbs         0x4               /usr/local/xenon/usr/lib/libxenon.a(tcp.o)
lwip_stats          0x158             /usr/local/xenon/usr/lib/libxenon.a(stats.o)
netif_default       0x4               /usr/local/xenon/usr/lib/libxenon.a(netif.o)
pagebuf             0x210             /usr/local/xenon/usr/lib/libxenon.a(xenon_config.o)
ehci_hcds           0x380             /usr/local/xenon/usr/lib/libxenon.a(tinyehci.o)
dhcp_rx_options_val
                    0x28              /usr/local/xenon/usr/lib/libxenon.a(dhcp.o)
ram_heap            0x40001c          /usr/local/xenon/usr/lib/libxenon.a(mem.o)

Discarded input sections

 .text          0x0000000000000000        0x0 /usr/local/xenon/lib/gcc/xenon/6.3.0/../../../../xenon/lib/../lib/crt1.o
 .data          0x0000000000000000        0x0 /usr/local/xenon/lib/gcc/xenon/6.3.0/../../../../xenon/lib/../lib/crt1.o
 .bss           0x0000000000000000        0x0 /usr/local/xenon/lib/gcc/xenon/6.3.0/../../../../xenon/lib/../lib/crt1.o
 .text          0x0000000000000000        0x0 /usr/local/xenon/lib/gcc/xenon/6.3.0/../../../../xenon/lib/../lib/crti.o
 .data          0x0000000000000000        0x0 /usr/local/xenon/lib/gcc/xenon/6.3.0/../../../../xenon/lib/../lib/crti.o
 .bss           0x0000000000000000        0x0 /usr/local/xenon/lib/gcc/xenon/6.3.0/../../../../xenon/lib/../lib/crti.o
 .text          0x0000000000000000      0x1c4 /usr/local/xenon/lib/gcc/xenon/6.3.0/32/crtbegin.o
 .data          0x0000000000000000        0x4 /usr/local/xenon/lib/gcc/xenon/6.3.0/32/crtbegin.o
 .bss           0x0000000000000000        0x8 /usr/local/xenon/lib/gcc/xenon/6.3.0/32/crtbegin.o
 .ctors         0x0000000000000000        0x4 /usr/local/xenon/lib/gcc/xenon/6.3.0/32/crtbegin.o
 .dtors         0x0000000000000000        0x4 /usr/local/xenon/lib/gcc/xenon/6.3.0/32/crtbegin.o
 .jcr           0x0000000000000000        0x0 /usr/local/xenon/lib/gcc/xenon/6.3.0/32/crtbegin.o
 .tm_clone_table
                0x0000000000000000        0x0 /usr/local/xenon/lib/gcc/xenon/6.3.0/32/crtbegin.o
 .fini          0x0000000000000000        0x4 /usr/local/xenon/lib/gcc/xenon/6.3.0/32/crtbegin.o
 .init          0x0000000000000000        0x4 /usr/local/xenon/lib/gcc/xenon/6.3.0/32/crtbegin.o
 .comment       0x0000000000000000       0x12 /usr/local/xenon/lib/gcc/xenon/6.3.0/32/crtbegin.o
 .note.GNU-stack
                0x0000000000000000        0x0 /usr/local/xenon/lib/gcc/xenon/6.3.0/32/crtbegin.o
 .text          0x0000000000000000        0x0 main.o
 .data          0x0000000000000000        0x0 main.o
 .bss           0x0000000000000000        0x0 main.o
 .text.mainInit
                0x0000000000000000       0x24 main.o
 .text.xenon_set_cpu_fan_speed
                0x0000000000000000       0x48 main.o
 .text.xenon_set_gpu_fan_speed
                0x0000000000000000       0x48 main.o
 .text          0x0000000000000000        0x0 /usr/local/xenon/usr/lib/libxenon.a(argv.o)
 .data          0x0000000000000000        0x0 /usr/local/xenon/usr/lib/libxenon.a(argv.o)
 .bss           0x0000000000000000        0x0 /usr/local/xenon/usr/lib/libxenon.a(argv.o)
 .data          0x0000000000000000        0x0 /usr/local/xenon/usr/lib/libxenon.a(startup_from_xell.o)
 .bss           0x0000000000000000        0x0 /usr/local/xenon/usr/lib/libxenon.a(startup_from_xell.o)
 .text          0x0000000000000000        0x0 /usr/local/xenon/usr/lib/libxenon.a(console.o)
 .data          0x0000000000000000        0x0 /usr/local/xenon/usr/lib/libxenon.a(console.o)
 .bss           0x0000000000000000        0x0 /usr/local/xenon/usr/lib/libxenon.a(console.o)
 .text.console_clrline
                0x0000000000000000       0x70 /usr/local/xenon/usr/lib/libxenon.a(console.o)
 .text.console_get_dimensions
                0x0000000000000000       0x2c /usr/local/xenon/usr/lib/libxenon.a(console.o)
 .text.console_close
                0x0000000000000000       0x10 /usr/local/xenon/usr/lib/libxenon.a(console.o)
 .rodata.console_clrline.str1.1
                0x0000000000000000        0x5 /usr/local/xenon/usr/lib/libxenon.a(console.o)
 .sbss          0x0000000000000000        0x8 /usr/local/xenon/usr/lib/libxenon.a(console.o)
 .text          0x0000000000000000        0x0 /usr/local/xenon/usr/lib/libxenon.a(input.o)
 .data          0x0000000000000000        0x0 /usr/local/xenon/usr/lib/libxenon.a(input.o)
 .bss           0x0000000000000000        0x0 /usr/local/xenon/usr/lib/libxenon.a(input.o)
 .text.set_controller_rumble
                0x0000000000000000        0x4 /usr/local/xenon/usr/lib/libxenon.a(input.o)
 .text          0x0000000000000000        0x0 /usr/local/xenon/usr/lib/libxenon.a(newlib.o)
 .data          0x0000000000000000        0x0 /usr/local/xenon/usr/lib/libxenon.a(newlib.o)
 .bss           0x0000000000000000        0x0 /usr/local/xenon/usr/lib/libxenon.a(newlib.o)
 .text.__dirreset
                0x0000000000000000       0x4c /usr/local/xenon/usr/lib/libxenon.a(newlib.o)
 .text.__dirnext
                0x0000000000000000       0x58 /usr/local/xenon/usr/lib/libxenon.a(newlib.o)
 .text.__libc_lock_init
                0x0000000000000000       0x20 /usr/local/xenon/usr/lib/libxenon.a(newlib.o)
 .text.__libc_lock_close
                0x0000000000000000       0x20 /usr/local/xenon/usr/lib/libxenon.a(newlib.o)
 .text.__libc_lock_release
                0x0000000000000000       0x20 /usr/local/xenon/usr/lib/libxenon.a(newlib.o)
 .text.__libc_lock_acquire
                0x0000000000000000       0x20 /usr/local/xenon/usr/lib/libxenon.a(newlib.o)
 .text.dlopen   0x0000000000000000        0x8 /usr/local/xenon/usr/lib/libxenon.a(newlib.o)
 .text.dlsym    0x0000000000000000        0x8 /usr/local/xenon/usr/lib/libxenon.a(newlib.o)
 .text.dlclose  0x0000000000000000        0x8 /usr/local/xenon/usr/lib/libxenon.a(newlib.o)
 .text.dlerror  0x0000000000000000        0xc /usr/local/xenon/usr/lib/libxenon.a(newlib.o)
 .text.popen    0x0000000000000000        0x8 /usr/local/xenon/usr/lib/libxenon.a(newlib.o)
 .text.pclose   0x0000000000000000        0x8 /usr/local/xenon/usr/lib/libxenon.a(newlib.o)
 .text.execve   0x0000000000000000       0x18 /usr/local/xenon/usr/lib/libxenon.a(newlib.o)
 .text.execv    0x0000000000000000       0x18 /usr/local/xenon/usr/lib/libxenon.a(newlib.o)
 .text.execvp   0x0000000000000000       0x18 /usr/local/xenon/usr/lib/libxenon.a(newlib.o)
 .text.fork     0x0000000000000000       0x18 /usr/local/xenon/usr/lib/libxenon.a(newlib.o)
 .text.getpid   0x0000000000000000       0x18 /usr/local/xenon/usr/lib/libxenon.a(newlib.o)
 .text.waitpid  0x0000000000000000        0x8 /usr/local/xenon/usr/lib/libxenon.a(newlib.o)
 .text.mkfifo   0x0000000000000000        0x8 /usr/local/xenon/usr/lib/libxenon.a(newlib.o)
 .text.lstat    0x0000000000000000        0x8 /usr/local/xenon/usr/lib/libxenon.a(newlib.o)
 .text.getrusage
                0x0000000000000000       0x18 /usr/local/xenon/usr/lib/libxenon.a(newlib.o)
 .text.gettimeofday
                0x0000000000000000       0x3c /usr/local/xenon/usr/lib/libxenon.a(newlib.o)
 .text.kill     0x0000000000000000       0x18 /usr/local/xenon/usr/lib/libxenon.a(newlib.o)
 .text.gethostname
                0x0000000000000000       0x30 /usr/local/xenon/usr/lib/libxenon.a(newlib.o)
 .text.getuid   0x0000000000000000        0x8 /usr/local/xenon/usr/lib/libxenon.a(newlib.o)
 .text.geteuid  0x0000000000000000        0x8 /usr/local/xenon/usr/lib/libxenon.a(newlib.o)
 .text.getgid   0x0000000000000000        0x8 /usr/local/xenon/usr/lib/libxenon.a(newlib.o)
 .text.getegid  0x0000000000000000        0x8 /usr/local/xenon/usr/lib/libxenon.a(newlib.o)
 .text.setuid   0x0000000000000000        0xc /usr/local/xenon/usr/lib/libxenon.a(newlib.o)
 .text.setgid   0x0000000000000000        0xc /usr/local/xenon/usr/lib/libxenon.a(newlib.o)
 .text.getppid  0x0000000000000000        0x8 /usr/local/xenon/usr/lib/libxenon.a(newlib.o)
 .text.getpwuid
                0x0000000000000000       0x3c /usr/local/xenon/usr/lib/libxenon.a(newlib.o)
 .text.getpwnam
                0x0000000000000000       0x3c /usr/local/xenon/usr/lib/libxenon.a(newlib.o)
 .text.getgrnam
                0x0000000000000000       0x3c /usr/local/xenon/usr/lib/libxenon.a(newlib.o)
 .text.getgrgid
                0x0000000000000000       0x3c /usr/local/xenon/usr/lib/libxenon.a(newlib.o)
 .text.__alloc_handle
                0x0000000000000000       0x68 /usr/local/xenon/usr/lib/libxenon.a(newlib.o)
 .text.setDefaultDevice
                0x0000000000000000       0x18 /usr/local/xenon/usr/lib/libxenon.a(newlib.o)
 .text.FindDevice
                0x0000000000000000       0xc8 /usr/local/xenon/usr/lib/libxenon.a(newlib.o)
 .text.RemoveDevice
                0x0000000000000000       0x44 /usr/local/xenon/usr/lib/libxenon.a(newlib.o)
 .text.AddDevice
                0x0000000000000000       0xa4 /usr/local/xenon/usr/lib/libxenon.a(newlib.o)
 .text.GetDeviceOpTab
                0x0000000000000000       0x40 /usr/local/xenon/usr/lib/libxenon.a(newlib.o)
 .text.open     0x0000000000000000       0xd4 /usr/local/xenon/usr/lib/libxenon.a(newlib.o)
 .text.stat     0x0000000000000000       0x8c /usr/local/xenon/usr/lib/libxenon.a(newlib.o)
 .text.access   0x0000000000000000       0x48 /usr/local/xenon/usr/lib/libxenon.a(newlib.o)
 .text.statvfs  0x0000000000000000       0x8c /usr/local/xenon/usr/lib/libxenon.a(newlib.o)
 .text.fsync    0x0000000000000000       0x80 /usr/local/xenon/usr/lib/libxenon.a(newlib.o)
 .text.ftruncate
                0x0000000000000000       0x88 /usr/local/xenon/usr/lib/libxenon.a(newlib.o)
 .text.link     0x0000000000000000       0xa4 /usr/local/xenon/usr/lib/libxenon.a(newlib.o)
 .text.rename   0x0000000000000000       0xa4 /usr/local/xenon/usr/lib/libxenon.a(newlib.o)
 .text.unlink   0x0000000000000000       0x80 /usr/local/xenon/usr/lib/libxenon.a(newlib.o)
 .text._concatenate_path
                0x0000000000000000      0x1ac /usr/local/xenon/usr/lib/libxenon.a(newlib.o)
 .text.chdir    0x0000000000000000      0x138 /usr/local/xenon/usr/lib/libxenon.a(newlib.o)
 .text.getcwd   0x0000000000000000       0x78 /usr/local/xenon/usr/lib/libxenon.a(newlib.o)
 .text.chmod    0x0000000000000000       0x8c /usr/local/xenon/usr/lib/libxenon.a(newlib.o)
 .text.fchmod   0x0000000000000000       0x88 /usr/local/xenon/usr/lib/libxenon.a(newlib.o)
 .text.opendir  0x0000000000000000      0x10c /usr/local/xenon/usr/lib/libxenon.a(newlib.o)
 .text.closedir
                0x0000000000000000       0xa4 /usr/local/xenon/usr/lib/libxenon.a(newlib.o)
 .text.readdir  0x0000000000000000      0x104 /usr/local/xenon/usr/lib/libxenon.a(newlib.o)
 .text.rewinddir
                0x0000000000000000       0x30 /usr/local/xenon/usr/lib/libxenon.a(newlib.o)
 .text.seekdir  0x0000000000000000       0x7c /usr/local/xenon/usr/lib/libxenon.a(newlib.o)
 .text.telldir  0x0000000000000000       0x18 /usr/local/xenon/usr/lib/libxenon.a(newlib.o)
 .text.fcntl    0x0000000000000000        0x8 /usr/local/xenon/usr/lib/libxenon.a(newlib.o)
 .text.mkdir    0x0000000000000000       0x84 /usr/local/xenon/usr/lib/libxenon.a(newlib.o)
 .text.bdev_enum
                0x0000000000000000       0x7c /usr/local/xenon/usr/lib/libxenon.a(newlib.o)
 .data._current_working_directory
                0x0000000000000000      0x400 /usr/local/xenon/usr/lib/libxenon.a(newlib.o)
 .data.defaultDevice
                0x0000000000000000        0x4 /usr/local/xenon/usr/lib/libxenon.a(newlib.o)
 .rodata.__FUNCTION__.5089
                0x0000000000000000        0x9 /usr/local/xenon/usr/lib/libxenon.a(newlib.o)
 .rodata.__FUNCTION__.5093
                0x0000000000000000        0x9 /usr/local/xenon/usr/lib/libxenon.a(newlib.o)
 .rodata.__FUNCTION__.5097
                0x0000000000000000        0x9 /usr/local/xenon/usr/lib/libxenon.a(newlib.o)
 .rodata.__FUNCTION__.5101
                0x0000000000000000        0x9 /usr/local/xenon/usr/lib/libxenon.a(newlib.o)
 .rodata.bdev_enum.str1.1
                0x0000000000000000        0x4 /usr/local/xenon/usr/lib/libxenon.a(newlib.o)
 .rodata.dlerror.str1.1
                0x0000000000000000        0x1 /usr/local/xenon/usr/lib/libxenon.a(newlib.o)
 .rodata.gethostname.str1.1
                0x0000000000000000        0x6 /usr/local/xenon/usr/lib/libxenon.a(newlib.o)
 .rodata.getpwuid.str1.1
                0x0000000000000000       0x21 /usr/local/xenon/usr/lib/libxenon.a(newlib.o)
 .sdata.DIRECTORY_PARENT
                0x0000000000000000        0x3 /usr/local/xenon/usr/lib/libxenon.a(newlib.o)
 .sdata.DIRECTORY_SEPARATOR
                0x0000000000000000        0x2 /usr/local/xenon/usr/lib/libxenon.a(newlib.o)
 .sdata.DIRECTORY_THIS
                0x0000000000000000        0x2 /usr/local/xenon/usr/lib/libxenon.a(newlib.o)
 .text          0x0000000000000000        0x0 /usr/local/xenon/usr/lib/libxenon.a(xenon_syscalls.o)
 .data          0x0000000000000000        0x0 /usr/local/xenon/usr/lib/libxenon.a(xenon_syscalls.o)
 .bss           0x0000000000000000        0x0 /usr/local/xenon/usr/lib/libxenon.a(xenon_syscalls.o)
 .text          0x0000000000000000        0x0 /usr/local/xenon/usr/lib/libxenon.a(lib_malloc.o)
 .data          0x0000000000000000        0x0 /usr/local/xenon/usr/lib/libxenon.a(lib_malloc.o)
 .bss           0x0000000000000000        0x0 /usr/local/xenon/usr/lib/libxenon.a(lib_malloc.o)
 .text.kmeminit
                0x0000000000000000       0x38 /usr/local/xenon/usr/lib/libxenon.a(lib_malloc.o)
 .text.kmempoolbase
                0x0000000000000000        0x8 /usr/local/xenon/usr/lib/libxenon.a(lib_malloc.o)
 .text.kmempoolsize
                0x0000000000000000        0x8 /usr/local/xenon/usr/lib/libxenon.a(lib_malloc.o)
 .text.kmemstats
                0x0000000000000000       0xf0 /usr/local/xenon/usr/lib/libxenon.a(lib_malloc.o)
 .data          0x0000000000000000        0x0 /usr/local/xenon/usr/lib/libxenon.a(atomic.o)
 .bss           0x0000000000000000        0x0 /usr/local/xenon/usr/lib/libxenon.a(atomic.o)
 .data          0x0000000000000000        0x0 /usr/local/xenon/usr/lib/libxenon.a(cache.o)
 .bss           0x0000000000000000        0x0 /usr/local/xenon/usr/lib/libxenon.a(cache.o)
 .text          0x0000000000000000        0x0 /usr/local/xenon/usr/lib/libxenon.a(except.o)
 .data          0x0000000000000000        0x0 /usr/local/xenon/usr/lib/libxenon.a(except.o)
 .bss           0x0000000000000000        0x0 /usr/local/xenon/usr/lib/libxenon.a(except.o)
 .text          0x0000000000000000        0x0 /usr/local/xenon/usr/lib/libxenon.a(c_except.o)
 .data          0x0000000000000000        0x0 /usr/local/xenon/usr/lib/libxenon.a(c_except.o)
 .bss           0x0000000000000000        0x0 /usr/local/xenon/usr/lib/libxenon.a(c_except.o)
 .text          0x0000000000000000        0x0 /usr/local/xenon/usr/lib/libxenon.a(vm.o)
 .data          0x0000000000000000        0x0 /usr/local/xenon/usr/lib/libxenon.a(vm.o)
 .bss           0x0000000000000000        0x0 /usr/local/xenon/usr/lib/libxenon.a(vm.o)
 .text.vm_common_check_get_idx
                0x0000000000000000       0x9c /usr/local/xenon/usr/lib/libxenon.a(vm.o)
 .text.vm_create_user_mapping
                0x0000000000000000       0xbc /usr/local/xenon/usr/lib/libxenon.a(vm.o)
 .text.vm_destroy_user_mapping
                0x0000000000000000       0x6c /usr/local/xenon/usr/lib/libxenon.a(vm.o)
 .text.vm_set_user_mapping_flags
                0x0000000000000000       0x84 /usr/local/xenon/usr/lib/libxenon.a(vm.o)
 .text.vm_set_user_mapping_segfault_handler
                0x0000000000000000        0xc /usr/local/xenon/usr/lib/libxenon.a(vm.o)
 .rodata.__func__.3752
                0x0000000000000000       0x18 /usr/local/xenon/usr/lib/libxenon.a(vm.o)
 .rodata.__func__.3759
                0x0000000000000000       0x17 /usr/local/xenon/usr/lib/libxenon.a(vm.o)
 .rodata.vm_common_check_get_idx.str1.1
                0x0000000000000000       0x7e /usr/local/xenon/usr/lib/libxenon.a(vm.o)
 .rodata.vm_create_user_mapping.str1.1
                0x0000000000000000       0x1f /usr/local/xenon/usr/lib/libxenon.a(vm.o)
 .text          0x0000000000000000        0x0 /usr/local/xenon/usr/lib/libxenon.a(time.o)
 .data          0x0000000000000000        0x0 /usr/local/xenon/usr/lib/libxenon.a(time.o)
 .bss           0x0000000000000000        0x0 /usr/local/xenon/usr/lib/libxenon.a(time.o)
 .text          0x0000000000000000        0x0 /usr/local/xenon/usr/lib/libxenon.a(usbctrl.o)
 .data          0x0000000000000000        0x0 /usr/local/xenon/usr/lib/libxenon.a(usbctrl.o)
 .bss           0x0000000000000000        0x0 /usr/local/xenon/usr/lib/libxenon.a(usbctrl.o)
 .text.usbctrl_set_rumble
                0x0000000000000000      0x120 /usr/local/xenon/usr/lib/libxenon.a(usbctrl.o)
 .text          0x0000000000000000        0x0 /usr/local/xenon/usr/lib/libxenon.a(usbd.o)
 .data          0x0000000000000000        0x0 /usr/local/xenon/usr/lib/libxenon.a(usbd.o)
 .bss           0x0000000000000000        0x0 /usr/local/xenon/usr/lib/libxenon.a(usbd.o)
 .text.usb_destroy_pipe
                0x0000000000000000       0x68 /usr/local/xenon/usr/lib/libxenon.a(usbd.o)
 .text.usb_cancel_request
                0x0000000000000000       0x2c /usr/local/xenon/usr/lib/libxenon.a(usbd.o)
 .text.usb_make_sync_request
                0x0000000000000000       0x38 /usr/local/xenon/usr/lib/libxenon.a(usbd.o)
 .rodata.usb_cancel_request.str1.1
                0x0000000000000000       0x27 /usr/local/xenon/usr/lib/libxenon.a(usbd.o)
 .text          0x0000000000000000        0x0 /usr/local/xenon/usr/lib/libxenon.a(usbdevs.o)
 .data          0x0000000000000000        0x0 /usr/local/xenon/usr/lib/libxenon.a(usbdevs.o)
 .bss           0x0000000000000000        0x0 /usr/local/xenon/usr/lib/libxenon.a(usbdevs.o)
 .text          0x0000000000000000        0x0 /usr/local/xenon/usr/lib/libxenon.a(usbhid.o)
 .data          0x0000000000000000        0x0 /usr/local/xenon/usr/lib/libxenon.a(usbhid.o)
 .bss           0x0000000000000000        0x0 /usr/local/xenon/usr/lib/libxenon.a(usbhid.o)
 .text          0x0000000000000000        0x0 /usr/local/xenon/usr/lib/libxenon.a(usbhub.o)
 .data          0x0000000000000000        0x0 /usr/local/xenon/usr/lib/libxenon.a(usbhub.o)
 .bss           0x0000000000000000        0x0 /usr/local/xenon/usr/lib/libxenon.a(usbhub.o)
 .text.usbhub_dumpbus1
                0x0000000000000000       0x8c /usr/local/xenon/usr/lib/libxenon.a(usbhub.o)
 .text.usbhub_dumpbus
                0x0000000000000000       0x30 /usr/local/xenon/usr/lib/libxenon.a(usbhub.o)
 .rodata.usbhub_dumpbus1.str1.1
                0x0000000000000000       0x4d /usr/local/xenon/usr/lib/libxenon.a(usbhub.o)
 .text          0x0000000000000000        0x0 /usr/local/xenon/usr/lib/libxenon.a(usbmain.o)
 .data          0x0000000000000000        0x0 /usr/local/xenon/usr/lib/libxenon.a(usbmain.o)
 .bss           0x0000000000000000        0x0 /usr/local/xenon/usr/lib/libxenon.a(usbmain.o)
 .text          0x0000000000000000        0x0 /usr/local/xenon/usr/lib/libxenon.a(tinyehci.o)
 .data          0x0000000000000000        0x0 /usr/local/xenon/usr/lib/libxenon.a(tinyehci.o)
 .bss           0x0000000000000000        0x0 /usr/local/xenon/usr/lib/libxenon.a(tinyehci.o)
 .text.USBStorage_True
                0x0000000000000000        0x8 /usr/local/xenon/usr/lib/libxenon.a(tinyehci.o)
 .text.USBStorage_Inserted_0
                0x0000000000000000        0xc /usr/local/xenon/usr/lib/libxenon.a(tinyehci.o)
 .text.USBStorage_Inserted_1
                0x0000000000000000        0xc /usr/local/xenon/usr/lib/libxenon.a(tinyehci.o)
 .text.USBStorage_Inserted_2
                0x0000000000000000        0xc /usr/local/xenon/usr/lib/libxenon.a(tinyehci.o)
 .text.debug_qtds
                0x0000000000000000       0x48 /usr/local/xenon/usr/lib/libxenon.a(tinyehci.o)
 .text.dump_qh  0x0000000000000000       0x48 /usr/local/xenon/usr/lib/libxenon.a(tinyehci.o)
 .text.ehci_release_ports
                0x0000000000000000       0x9c /usr/local/xenon/usr/lib/libxenon.a(tinyehci.o)
 .text.ehci_open_device
                0x0000000000000000       0x80 /usr/local/xenon/usr/lib/libxenon.a(tinyehci.o)
 .text.ehci_close_device
                0x0000000000000000       0x18 /usr/local/xenon/usr/lib/libxenon.a(tinyehci.o)
 .text.ehci_fd_to_dev
                0x0000000000000000       0x48 /usr/local/xenon/usr/lib/libxenon.a(tinyehci.o)
 .text.ehci_get_device_list
                0x0000000000000000       0x84 /usr/local/xenon/usr/lib/libxenon.a(tinyehci.o)
 .text.USB_WriteBlkMsg
                0x0000000000000000        0x4 /usr/local/xenon/usr/lib/libxenon.a(tinyehci.o)
 .text.USB_WriteCtrlMsg
                0x0000000000000000        0x4 /usr/local/xenon/usr/lib/libxenon.a(tinyehci.o)
 .text.my_memcmp
                0x0000000000000000       0x48 /usr/local/xenon/usr/lib/libxenon.a(tinyehci.o)
 .text.USBStorage_GetMaxLUN
                0x0000000000000000        0x8 /usr/local/xenon/usr/lib/libxenon.a(tinyehci.o)
 .text.USBStorage_Reset
                0x0000000000000000        0x4 /usr/local/xenon/usr/lib/libxenon.a(tinyehci.o)
 .text.USBStorage_Read
                0x0000000000000000      0x14c /usr/local/xenon/usr/lib/libxenon.a(tinyehci.o)
 .text.USBStorage_Write
                0x0000000000000000      0x14c /usr/local/xenon/usr/lib/libxenon.a(tinyehci.o)
 .text.USBStorage_Get_Capacity
                0x0000000000000000       0x6c /usr/local/xenon/usr/lib/libxenon.a(tinyehci.o)
 .text.USBStorage_devsectors_0
                0x0000000000000000       0x28 /usr/local/xenon/usr/lib/libxenon.a(tinyehci.o)
 .text.USBStorage_devsectors_1
                0x0000000000000000       0x28 /usr/local/xenon/usr/lib/libxenon.a(tinyehci.o)
 .text.USBStorage_devsectors_2
                0x0000000000000000       0x28 /usr/local/xenon/usr/lib/libxenon.a(tinyehci.o)
 .text.unplug_procedure
                0x0000000000000000       0xd4 /usr/local/xenon/usr/lib/libxenon.a(tinyehci.o)
 .text.USBStorage_Read_Sectors
                0x0000000000000000      0x10c /usr/local/xenon/usr/lib/libxenon.a(tinyehci.o)
 .text.USBStorage_Read_Sectors_0
                0x0000000000000000       0x14 /usr/local/xenon/usr/lib/libxenon.a(tinyehci.o)
 .text.USBStorage_Read_Sectors_1
                0x0000000000000000       0x14 /usr/local/xenon/usr/lib/libxenon.a(tinyehci.o)
 .text.USBStorage_Read_Sectors_2
                0x0000000000000000       0x14 /usr/local/xenon/usr/lib/libxenon.a(tinyehci.o)
 .text.USBStorage_Write_Sectors
                0x0000000000000000      0x10c /usr/local/xenon/usr/lib/libxenon.a(tinyehci.o)
 .text.USBStorage_Write_Sectors_0
                0x0000000000000000       0x14 /usr/local/xenon/usr/lib/libxenon.a(tinyehci.o)
 .text.USBStorage_Write_Sectors_1
                0x0000000000000000       0x14 /usr/local/xenon/usr/lib/libxenon.a(tinyehci.o)
 .text.USBStorage_Write_Sectors_2
                0x0000000000000000       0x14 /usr/local/xenon/usr/lib/libxenon.a(tinyehci.o)
 .data.usb2mass_ops
                0x0000000000000000       0x24 /usr/local/xenon/usr/lib/libxenon.a(tinyehci.o)
 .data.usb2mass_ops_0
                0x0000000000000000       0x24 /usr/local/xenon/usr/lib/libxenon.a(tinyehci.o)
 .data.usb2mass_ops_1
                0x0000000000000000       0x24 /usr/local/xenon/usr/lib/libxenon.a(tinyehci.o)
 .data.usb2mass_ops_2
                0x0000000000000000       0x24 /usr/local/xenon/usr/lib/libxenon.a(tinyehci.o)
 .text          0x0000000000000000        0x0 /usr/local/xenon/usr/lib/libxenon.a(debug.o)
 .data          0x0000000000000000        0x0 /usr/local/xenon/usr/lib/libxenon.a(debug.o)
 .bss           0x0000000000000000        0x0 /usr/local/xenon/usr/lib/libxenon.a(debug.o)
 .text.seems_valid
                0x0000000000000000       0x2c /usr/local/xenon/usr/lib/libxenon.a(debug.o)
 .text.buffer_dump
                0x0000000000000000       0x80 /usr/local/xenon/usr/lib/libxenon.a(debug.o)
 .text.stack_trace
                0x0000000000000000      0x578 /usr/local/xenon/usr/lib/libxenon.a(debug.o)
 .rodata.buffer_dump.str1.1
                0x0000000000000000       0x24 /usr/local/xenon/usr/lib/libxenon.a(debug.o)
 .rodata.stack_trace.str1.1
                0x0000000000000000       0x14 /usr/local/xenon/usr/lib/libxenon.a(debug.o)
 .text          0x0000000000000000        0x0 /usr/local/xenon/usr/lib/libxenon.a(xenon_smc.o)
 .data          0x0000000000000000        0x0 /usr/local/xenon/usr/lib/libxenon.a(xenon_smc.o)
 .bss           0x0000000000000000        0x0 /usr/local/xenon/usr/lib/libxenon.a(xenon_smc.o)
 .text.xenon_smc_get_ir
                0x0000000000000000       0x14 /usr/local/xenon/usr/lib/libxenon.a(xenon_smc.o)
 .text.xenon_smc_poll
                0x0000000000000000       0x54 /usr/local/xenon/usr/lib/libxenon.a(xenon_smc.o)
 .text.xenon_smc_set_led
                0x0000000000000000       0x40 /usr/local/xenon/usr/lib/libxenon.a(xenon_smc.o)
 .text.xenon_smc_set_power_led
                0x0000000000000000       0x58 /usr/local/xenon/usr/lib/libxenon.a(xenon_smc.o)
 .text.xenon_smc_power_shutdown
                0x0000000000000000       0x40 /usr/local/xenon/usr/lib/libxenon.a(xenon_smc.o)
 .text.xenon_smc_start_bootanim
                0x0000000000000000       0x48 /usr/local/xenon/usr/lib/libxenon.a(xenon_smc.o)
 .text.xenon_smc_query_sensors
                0x0000000000000000       0x70 /usr/local/xenon/usr/lib/libxenon.a(xenon_smc.o)
 .text          0x0000000000000000        0x0 /usr/local/xenon/usr/lib/libxenon.a(xenon_power.o)
 .data          0x0000000000000000        0x0 /usr/local/xenon/usr/lib/libxenon.a(xenon_power.o)
 .bss           0x0000000000000000        0x0 /usr/local/xenon/usr/lib/libxenon.a(xenon_power.o)
 .text.xenon_yield
                0x0000000000000000        0x4 /usr/local/xenon/usr/lib/libxenon.a(xenon_power.o)
 .text.xenon_get_speed
                0x0000000000000000       0x14 /usr/local/xenon/usr/lib/libxenon.a(xenon_power.o)
 .text.xenon_sleep_thread
                0x0000000000000000       0x20 /usr/local/xenon/usr/lib/libxenon.a(xenon_power.o)
 .text          0x0000000000000000        0x0 /usr/local/xenon/usr/lib/libxenon.a(xenon_uart.o)
 .data          0x0000000000000000        0x0 /usr/local/xenon/usr/lib/libxenon.a(xenon_uart.o)
 .bss           0x0000000000000000        0x0 /usr/local/xenon/usr/lib/libxenon.a(xenon_uart.o)
 .text.kbhit    0x0000000000000000       0x1c /usr/local/xenon/usr/lib/libxenon.a(xenon_uart.o)
 .text.getch    0x0000000000000000       0x38 /usr/local/xenon/usr/lib/libxenon.a(xenon_uart.o)
 .text          0x0000000000000000        0x0 /usr/local/xenon/usr/lib/libxenon.a(xenon_config.o)
 .data          0x0000000000000000        0x0 /usr/local/xenon/usr/lib/libxenon.a(xenon_config.o)
 .bss           0x0000000000000000        0x0 /usr/local/xenon/usr/lib/libxenon.a(xenon_config.o)
 .text.xenon_config_get_mac_addr
                0x0000000000000000       0xcc /usr/local/xenon/usr/lib/libxenon.a(xenon_config.o)
 COMMON         0x0000000000000000      0x210 /usr/local/xenon/usr/lib/libxenon.a(xenon_config.o)
 .text          0x0000000000000000        0x0 /usr/local/xenon/usr/lib/libxenon.a(xenos.o)
 .data          0x0000000000000000        0x0 /usr/local/xenon/usr/lib/libxenon.a(xenos.o)
 .bss           0x0000000000000000        0x0 /usr/local/xenon/usr/lib/libxenon.a(xenos.o)
 .text.xenos_write32
                0x0000000000000000        0xc /usr/local/xenon/usr/lib/libxenon.a(xenos.o)
 .text.xenos_read32
                0x0000000000000000        0xc /usr/local/xenon/usr/lib/libxenon.a(xenos.o)
 .text          0x0000000000000000        0x0 /usr/local/xenon/usr/lib/libxenon.a(xenos_edid.o)
 .data          0x0000000000000000        0x0 /usr/local/xenon/usr/lib/libxenon.a(xenos_edid.o)
 .bss           0x0000000000000000        0x0 /usr/local/xenon/usr/lib/libxenon.a(xenos_edid.o)
 .text          0x0000000000000000        0x0 /usr/local/xenon/usr/lib/libxenon.a(enet.o)
 .data          0x0000000000000000        0x0 /usr/local/xenon/usr/lib/libxenon.a(enet.o)
 .bss           0x0000000000000000        0x0 /usr/local/xenon/usr/lib/libxenon.a(enet.o)
 .text.enet_linkoutput
                0x0000000000000000      0x11c /usr/local/xenon/usr/lib/libxenon.a(enet.o)
 .text.phy_read
                0x0000000000000000       0x48 /usr/local/xenon/usr/lib/libxenon.a(enet.o)
 .text.enet_init
                0x0000000000000000      0x428 /usr/local/xenon/usr/lib/libxenon.a(enet.o)
 .text.enet_poll
                0x0000000000000000      0x1e0 /usr/local/xenon/usr/lib/libxenon.a(enet.o)
 .rodata.enet_init.str1.1
                0x0000000000000000       0x6a /usr/local/xenon/usr/lib/libxenon.a(enet.o)
 .sbss          0x0000000000000000        0x4 /usr/local/xenon/usr/lib/libxenon.a(enet.o)
 .text          0x0000000000000000        0x0 /usr/local/xenon/usr/lib/libxenon.a(xb360.o)
 .data          0x0000000000000000        0x0 /usr/local/xenon/usr/lib/libxenon.a(xb360.o)
 .bss           0x0000000000000000        0x0 /usr/local/xenon/usr/lib/libxenon.a(xb360.o)
 .text.print_key
                0x0000000000000000       0x74 /usr/local/xenon/usr/lib/libxenon.a(xb360.o)
 .text.cpu_get_key
                0x0000000000000000       0x90 /usr/local/xenon/usr/lib/libxenon.a(xb360.o)
 .text.kv_get_key
                0x0000000000000000       0x70 /usr/local/xenon/usr/lib/libxenon.a(xb360.o)
 .text.updateXeLL
                0x0000000000000000      0x354 /usr/local/xenon/usr/lib/libxenon.a(xb360.o)
 .text.xenon_get_CPU_PVR
                0x0000000000000000        0x8 /usr/local/xenon/usr/lib/libxenon.a(xb360.o)
 .text.get_virtual_cpukey
                0x0000000000000000       0x84 /usr/local/xenon/usr/lib/libxenon.a(xb360.o)
 .text.xenon_get_kv_size
                0x0000000000000000       0x40 /usr/local/xenon/usr/lib/libxenon.a(xb360.o)
 .text.xenon_get_kv_offset
                0x0000000000000000       0x40 /usr/local/xenon/usr/lib/libxenon.a(xb360.o)
 .text.kv_read  0x0000000000000000      0x19c /usr/local/xenon/usr/lib/libxenon.a(xb360.o)
 .text.kv_get_dvd_key
                0x0000000000000000      0x114 /usr/local/xenon/usr/lib/libxenon.a(xb360.o)
 .text.print_cpu_dvd_keys
                0x0000000000000000       0xcc /usr/local/xenon/usr/lib/libxenon.a(xb360.o)
 .rodata.kv_get_dvd_key.str1.1
                0x0000000000000000      0x15c /usr/local/xenon/usr/lib/libxenon.a(xb360.o)
 .rodata.kvlookup
                0x0000000000000000      0x2ac /usr/local/xenon/usr/lib/libxenon.a(xb360.o)
 .rodata.print_cpu_dvd_keys.str1.1
                0x0000000000000000       0x62 /usr/local/xenon/usr/lib/libxenon.a(xb360.o)
 .rodata.print_key.str1.1
                0x0000000000000000        0xa /usr/local/xenon/usr/lib/libxenon.a(xb360.o)
 .rodata.updateXeLL.str1.1
                0x0000000000000000      0x269 /usr/local/xenon/usr/lib/libxenon.a(xb360.o)
 .rodata.xelloffsets
                0x0000000000000000       0x18 /usr/local/xenon/usr/lib/libxenon.a(xb360.o)
 .text          0x0000000000000000        0x0 /usr/local/xenon/usr/lib/libxenon.a(dummy.o)
 .data          0x0000000000000000        0x0 /usr/local/xenon/usr/lib/libxenon.a(dummy.o)
 .bss           0x0000000000000000        0x0 /usr/local/xenon/usr/lib/libxenon.a(dummy.o)
 .text          0x0000000000000000        0x0 /usr/local/xenon/usr/lib/libxenon.a(ohci.o)
 .data          0x0000000000000000        0x0 /usr/local/xenon/usr/lib/libxenon.a(ohci.o)
 .bss           0x0000000000000000        0x0 /usr/local/xenon/usr/lib/libxenon.a(ohci.o)
 .sbss.ohcidebug
                0x0000000000000000        0x4 /usr/local/xenon/usr/lib/libxenon.a(ohci.o)
 .text          0x0000000000000000        0x0 /usr/local/xenon/usr/lib/libxenon.a(usbdebug.o)
 .data          0x0000000000000000        0x0 /usr/local/xenon/usr/lib/libxenon.a(usbdebug.o)
 .bss           0x0000000000000000        0x0 /usr/local/xenon/usr/lib/libxenon.a(usbdebug.o)
 .text.usb_dbg_dumpcfgdescr
                0x0000000000000000       0xb0 /usr/local/xenon/usr/lib/libxenon.a(usbdebug.o)
 .text.usb_dbg_dumpdevice
                0x0000000000000000       0xb8 /usr/local/xenon/usr/lib/libxenon.a(usbdebug.o)
 .text.usb_dbg_showdevice
                0x0000000000000000       0x4c /usr/local/xenon/usr/lib/libxenon.a(usbdebug.o)
 .rodata.usb_dbg_dumpcfgdescr.str1.1
                0x0000000000000000       0x54 /usr/local/xenon/usr/lib/libxenon.a(usbdebug.o)
 .rodata.usb_dbg_dumpdevice.str1.1
                0x0000000000000000       0x34 /usr/local/xenon/usr/lib/libxenon.a(usbdebug.o)
 .rodata.usb_dbg_showdevice.str1.1
                0x0000000000000000       0x4a /usr/local/xenon/usr/lib/libxenon.a(usbdebug.o)
 .text          0x0000000000000000        0x0 /usr/local/xenon/usr/lib/libxenon.a(usb_os.o)
 .data          0x0000000000000000        0x0 /usr/local/xenon/usr/lib/libxenon.a(usb_os.o)
 .bss           0x0000000000000000        0x0 /usr/local/xenon/usr/lib/libxenon.a(usb_os.o)
 .text          0x0000000000000000        0x0 /usr/local/xenon/usr/lib/libxenon.a(xenon_gpio.o)
 .data          0x0000000000000000        0x0 /usr/local/xenon/usr/lib/libxenon.a(xenon_gpio.o)
 .bss           0x0000000000000000        0x0 /usr/local/xenon/usr/lib/libxenon.a(xenon_gpio.o)
 .text.xenon_gpio_control
                0x0000000000000000       0x5c /usr/local/xenon/usr/lib/libxenon.a(xenon_gpio.o)
 .rodata        0x0000000000000000       0x24 /usr/local/xenon/usr/lib/libxenon.a(xenon_gpio.o)
 .data          0x0000000000000000        0x0 /usr/local/xenon/usr/lib/libxenon.a(cpusleep.o)
 .bss           0x0000000000000000        0x0 /usr/local/xenon/usr/lib/libxenon.a(cpusleep.o)
 .text          0x0000000000000000        0x0 /usr/local/xenon/usr/lib/libxenon.a(xenon_secotp.o)
 .data          0x0000000000000000        0x0 /usr/local/xenon/usr/lib/libxenon.a(xenon_secotp.o)
 .bss           0x0000000000000000        0x0 /usr/local/xenon/usr/lib/libxenon.a(xenon_secotp.o)
 .text.xenon_secotp_read_line
                0x0000000000000000       0x20 /usr/local/xenon/usr/lib/libxenon.a(xenon_secotp.o)
 .debug_info    0x0000000000000000       0xfb /usr/local/xenon/usr/lib/libxenon.a(xenon_secotp.o)
 .debug_abbrev  0x0000000000000000       0x98 /usr/local/xenon/usr/lib/libxenon.a(xenon_secotp.o)
 .debug_loc     0x0000000000000000       0x21 /usr/local/xenon/usr/lib/libxenon.a(xenon_secotp.o)
 .debug_aranges
                0x0000000000000000       0x20 /usr/local/xenon/usr/lib/libxenon.a(xenon_secotp.o)
 .debug_ranges  0x0000000000000000       0x10 /usr/local/xenon/usr/lib/libxenon.a(xenon_secotp.o)
 .debug_line    0x0000000000000000       0xdd /usr/local/xenon/usr/lib/libxenon.a(xenon_secotp.o)
 .debug_str     0x0000000000000000      0x1b5 /usr/local/xenon/usr/lib/libxenon.a(xenon_secotp.o)
 .comment       0x0000000000000000       0x12 /usr/local/xenon/usr/lib/libxenon.a(xenon_secotp.o)
 .note.GNU-stack
                0x0000000000000000        0x0 /usr/local/xenon/usr/lib/libxenon.a(xenon_secotp.o)
 .debug_frame   0x0000000000000000       0x20 /usr/local/xenon/usr/lib/libxenon.a(xenon_secotp.o)
 .text          0x0000000000000000        0x0 /usr/local/xenon/usr/lib/libxenon.a(xenon_sfcx.o)
 .data          0x0000000000000000        0x0 /usr/local/xenon/usr/lib/libxenon.a(xenon_sfcx.o)
 .bss           0x0000000000000000        0x0 /usr/local/xenon/usr/lib/libxenon.a(xenon_sfcx.o)
 .text.sfcx_writereg
                0x0000000000000000       0x10 /usr/local/xenon/usr/lib/libxenon.a(xenon_sfcx.o)
 .text.sfcx_read_page
                0x0000000000000000      0x144 /usr/local/xenon/usr/lib/libxenon.a(xenon_sfcx.o)
 .text.sfcx_write_page
                0x0000000000000000      0x118 /usr/local/xenon/usr/lib/libxenon.a(xenon_sfcx.o)
 .text.sfcx_read_block
                0x0000000000000000       0x80 /usr/local/xenon/usr/lib/libxenon.a(xenon_sfcx.o)
 .text.sfcx_write_block
                0x0000000000000000       0x6c /usr/local/xenon/usr/lib/libxenon.a(xenon_sfcx.o)
 .text.sfcx_erase_block
                0x0000000000000000       0xac /usr/local/xenon/usr/lib/libxenon.a(xenon_sfcx.o)
 .text.sfcx_calcecc_ex
                0x0000000000000000       0x7c /usr/local/xenon/usr/lib/libxenon.a(xenon_sfcx.o)
 .text.sfcx_calcecc
                0x0000000000000000       0x14 /usr/local/xenon/usr/lib/libxenon.a(xenon_sfcx.o)
 .text.sfcx_get_blocknumber
                0x0000000000000000       0x60 /usr/local/xenon/usr/lib/libxenon.a(xenon_sfcx.o)
 .text.sfcx_set_blocknumber
                0x0000000000000000       0x60 /usr/local/xenon/usr/lib/libxenon.a(xenon_sfcx.o)
 .text.sfcx_get_blockversion
                0x0000000000000000       0xb0 /usr/local/xenon/usr/lib/libxenon.a(xenon_sfcx.o)
 .text.sfcx_set_blockversion
                0x0000000000000000       0x80 /usr/local/xenon/usr/lib/libxenon.a(xenon_sfcx.o)
 .text.sfcx_set_pagevalid
                0x0000000000000000       0x48 /usr/local/xenon/usr/lib/libxenon.a(xenon_sfcx.o)
 .text.sfcx_set_pageinvalid
                0x0000000000000000       0x58 /usr/local/xenon/usr/lib/libxenon.a(xenon_sfcx.o)
 .text.sfcx_is_pagevalid
                0x0000000000000000       0x54 /usr/local/xenon/usr/lib/libxenon.a(xenon_sfcx.o)
 .text.sfcx_is_pagezeroed
                0x0000000000000000       0x4c /usr/local/xenon/usr/lib/libxenon.a(xenon_sfcx.o)
 .text.sfcx_is_pageerased
                0x0000000000000000       0x4c /usr/local/xenon/usr/lib/libxenon.a(xenon_sfcx.o)
 .text.sfcx_block_to_address
                0x0000000000000000       0x10 /usr/local/xenon/usr/lib/libxenon.a(xenon_sfcx.o)
 .text.sfcx_address_to_block
                0x0000000000000000       0x10 /usr/local/xenon/usr/lib/libxenon.a(xenon_sfcx.o)
 .text.sfcx_block_to_rawaddress
                0x0000000000000000       0x10 /usr/local/xenon/usr/lib/libxenon.a(xenon_sfcx.o)
 .text.sfcx_rawaddress_to_block
                0x0000000000000000       0x10 /usr/local/xenon/usr/lib/libxenon.a(xenon_sfcx.o)
 .text.rawflash_checkImage_meta
                0x0000000000000000      0x13c /usr/local/xenon/usr/lib/libxenon.a(xenon_sfcx.o)
 .text.rawflash_checkImage_ecd_page
                0x0000000000000000       0x70 /usr/local/xenon/usr/lib/libxenon.a(xenon_sfcx.o)
 .text.rawflash_checkImage_ecd
                0x0000000000000000       0x78 /usr/local/xenon/usr/lib/libxenon.a(xenon_sfcx.o)
 .text.rawflash_writeImage
                0x0000000000000000      0x1b8 /usr/local/xenon/usr/lib/libxenon.a(xenon_sfcx.o)
 .text.rawflash_checkImage
                0x0000000000000000       0xc8 /usr/local/xenon/usr/lib/libxenon.a(xenon_sfcx.o)
 .text.try_rawflash
                0x0000000000000000      0x18c /usr/local/xenon/usr/lib/libxenon.a(xenon_sfcx.o)
 .rodata.rawflash_checkImage.str1.1
                0x0000000000000000       0x5b /usr/local/xenon/usr/lib/libxenon.a(xenon_sfcx.o)
 .rodata.rawflash_checkImage_ecd.str1.1
                0x0000000000000000       0x20 /usr/local/xenon/usr/lib/libxenon.a(xenon_sfcx.o)
 .rodata.rawflash_checkImage_meta.str1.1
                0x0000000000000000       0x84 /usr/local/xenon/usr/lib/libxenon.a(xenon_sfcx.o)
 .rodata.rawflash_writeImage.str1.1
                0x0000000000000000      0x123 /usr/local/xenon/usr/lib/libxenon.a(xenon_sfcx.o)
 .rodata.sfcx_read_page.str1.1
                0x0000000000000000       0x96 /usr/local/xenon/usr/lib/libxenon.a(xenon_sfcx.o)
 .rodata.sfcx_write_page.str1.1
                0x0000000000000000       0x31 /usr/local/xenon/usr/lib/libxenon.a(xenon_sfcx.o)
 .rodata.try_rawflash.str1.1
                0x0000000000000000      0x1b5 /usr/local/xenon/usr/lib/libxenon.a(xenon_sfcx.o)
 .sbss          0x0000000000000000        0x4 /usr/local/xenon/usr/lib/libxenon.a(xenon_sfcx.o)
 .text          0x0000000000000000        0x0 /usr/local/xenon/usr/lib/libxenon.a(mem.o)
 .data          0x0000000000000000        0x0 /usr/local/xenon/usr/lib/libxenon.a(mem.o)
 .bss           0x0000000000000000        0x0 /usr/local/xenon/usr/lib/libxenon.a(mem.o)
 .text.mem_init
                0x0000000000000000       0x5c /usr/local/xenon/usr/lib/libxenon.a(mem.o)
 .text.mem_free
                0x0000000000000000      0x1f4 /usr/local/xenon/usr/lib/libxenon.a(mem.o)
 .text.mem_trim
                0x0000000000000000      0x1b0 /usr/local/xenon/usr/lib/libxenon.a(mem.o)
 .text.mem_malloc
                0x0000000000000000      0x1fc /usr/local/xenon/usr/lib/libxenon.a(mem.o)
 .text.mem_calloc
                0x0000000000000000       0x40 /usr/local/xenon/usr/lib/libxenon.a(mem.o)
 .bss.lfree     0x0000000000000000        0x4 /usr/local/xenon/usr/lib/libxenon.a(mem.o)
 .bss.ram       0x0000000000000000        0x4 /usr/local/xenon/usr/lib/libxenon.a(mem.o)
 .bss.ram_end   0x0000000000000000        0x4 /usr/local/xenon/usr/lib/libxenon.a(mem.o)
 .rodata.mem_free.str1.1
                0x0000000000000000       0x2e /usr/local/xenon/usr/lib/libxenon.a(mem.o)
 .debug_info    0x0000000000000000      0xf3f /usr/local/xenon/usr/lib/libxenon.a(mem.o)
 .debug_abbrev  0x0000000000000000      0x305 /usr/local/xenon/usr/lib/libxenon.a(mem.o)
 .debug_loc     0x0000000000000000      0x6b5 /usr/local/xenon/usr/lib/libxenon.a(mem.o)
 .debug_aranges
                0x0000000000000000       0x40 /usr/local/xenon/usr/lib/libxenon.a(mem.o)
 .debug_ranges  0x0000000000000000       0x60 /usr/local/xenon/usr/lib/libxenon.a(mem.o)
 .debug_line    0x0000000000000000      0x2ee /usr/local/xenon/usr/lib/libxenon.a(mem.o)
 .debug_str     0x0000000000000000      0x753 /usr/local/xenon/usr/lib/libxenon.a(mem.o)
 .comment       0x0000000000000000       0x12 /usr/local/xenon/usr/lib/libxenon.a(mem.o)
 .note.GNU-stack
                0x0000000000000000        0x0 /usr/local/xenon/usr/lib/libxenon.a(mem.o)
 .debug_frame   0x0000000000000000       0xb0 /usr/local/xenon/usr/lib/libxenon.a(mem.o)
 COMMON         0x0000000000000000   0x40001c /usr/local/xenon/usr/lib/libxenon.a(mem.o)
 .text          0x0000000000000000        0x0 /usr/local/xenon/usr/lib/libxenon.a(pbuf.o)
 .data          0x0000000000000000        0x0 /usr/local/xenon/usr/lib/libxenon.a(pbuf.o)
 .bss           0x0000000000000000        0x0 /usr/local/xenon/usr/lib/libxenon.a(pbuf.o)
 .text.pbuf_free_ooseq
                0x0000000000000000       0x54 /usr/local/xenon/usr/lib/libxenon.a(pbuf.o)
 .text.pbuf_alloced_custom
                0x0000000000000000       0xc0 /usr/local/xenon/usr/lib/libxenon.a(pbuf.o)
 .text.pbuf_header
                0x0000000000000000      0x134 /usr/local/xenon/usr/lib/libxenon.a(pbuf.o)
 .text.pbuf_free
                0x0000000000000000      0x150 /usr/local/xenon/usr/lib/libxenon.a(pbuf.o)
 .text.pbuf_alloc
                0x0000000000000000      0x2f0 /usr/local/xenon/usr/lib/libxenon.a(pbuf.o)
 .text.pbuf_realloc
                0x0000000000000000      0x170 /usr/local/xenon/usr/lib/libxenon.a(pbuf.o)
 .text.pbuf_clen
                0x0000000000000000       0x24 /usr/local/xenon/usr/lib/libxenon.a(pbuf.o)
 .text.pbuf_ref
                0x0000000000000000       0x18 /usr/local/xenon/usr/lib/libxenon.a(pbuf.o)
 .text.pbuf_cat
                0x0000000000000000       0xac /usr/local/xenon/usr/lib/libxenon.a(pbuf.o)
 .text.pbuf_chain
                0x0000000000000000       0x30 /usr/local/xenon/usr/lib/libxenon.a(pbuf.o)
 .text.pbuf_dechain
                0x0000000000000000       0xc4 /usr/local/xenon/usr/lib/libxenon.a(pbuf.o)
 .text.pbuf_copy
                0x0000000000000000      0x1d8 /usr/local/xenon/usr/lib/libxenon.a(pbuf.o)
 .text.pbuf_copy_partial
                0x0000000000000000       0xf8 /usr/local/xenon/usr/lib/libxenon.a(pbuf.o)
 .text.pbuf_take
                0x0000000000000000      0x128 /usr/local/xenon/usr/lib/libxenon.a(pbuf.o)
 .text.pbuf_coalesce
                0x0000000000000000       0x88 /usr/local/xenon/usr/lib/libxenon.a(pbuf.o)
 .text.pbuf_get_at
                0x0000000000000000       0x38 /usr/local/xenon/usr/lib/libxenon.a(pbuf.o)
 .text.pbuf_memcmp
                0x0000000000000000       0x9c /usr/local/xenon/usr/lib/libxenon.a(pbuf.o)
 .text.pbuf_memfind
                0x0000000000000000       0x80 /usr/local/xenon/usr/lib/libxenon.a(pbuf.o)
 .text.pbuf_strstr
                0x0000000000000000       0x9c /usr/local/xenon/usr/lib/libxenon.a(pbuf.o)
 .rodata.pbuf_alloced_custom.str1.1
                0x0000000000000000       0x2f /usr/local/xenon/usr/lib/libxenon.a(pbuf.o)
 .debug_info    0x0000000000000000     0x23e1 /usr/local/xenon/usr/lib/libxenon.a(pbuf.o)
 .debug_abbrev  0x0000000000000000      0x42f /usr/local/xenon/usr/lib/libxenon.a(pbuf.o)
 .debug_loc     0x0000000000000000     0x1535 /usr/local/xenon/usr/lib/libxenon.a(pbuf.o)
 .debug_aranges
                0x0000000000000000       0xb0 /usr/local/xenon/usr/lib/libxenon.a(pbuf.o)
 .debug_ranges  0x0000000000000000       0xf0 /usr/local/xenon/usr/lib/libxenon.a(pbuf.o)
 .debug_line    0x0000000000000000      0x6c9 /usr/local/xenon/usr/lib/libxenon.a(pbuf.o)
 .debug_str     0x0000000000000000      0xecb /usr/local/xenon/usr/lib/libxenon.a(pbuf.o)
 .comment       0x0000000000000000       0x12 /usr/local/xenon/usr/lib/libxenon.a(pbuf.o)
 .note.GNU-stack
                0x0000000000000000        0x0 /usr/local/xenon/usr/lib/libxenon.a(pbuf.o)
 .debug_frame   0x0000000000000000      0x2c0 /usr/local/xenon/usr/lib/libxenon.a(pbuf.o)
 .sbss          0x0000000000000000        0x1 /usr/local/xenon/usr/lib/libxenon.a(pbuf.o)
 .text          0x0000000000000000        0x0 /usr/local/xenon/usr/lib/libxenon.a(stats.o)
 .data          0x0000000000000000        0x0 /usr/local/xenon/usr/lib/libxenon.a(stats.o)
 .bss           0x0000000000000000        0x0 /usr/local/xenon/usr/lib/libxenon.a(stats.o)
 .text.stats_init
                0x0000000000000000        0x4 /usr/local/xenon/usr/lib/libxenon.a(stats.o)
 .debug_info    0x0000000000000000      0xa98 /usr/local/xenon/usr/lib/libxenon.a(stats.o)
 .debug_abbrev  0x0000000000000000      0x1cc /usr/local/xenon/usr/lib/libxenon.a(stats.o)
 .debug_aranges
                0x0000000000000000       0x20 /usr/local/xenon/usr/lib/libxenon.a(stats.o)
 .debug_ranges  0x0000000000000000       0x10 /usr/local/xenon/usr/lib/libxenon.a(stats.o)
 .debug_line    0x0000000000000000      0x138 /usr/local/xenon/usr/lib/libxenon.a(stats.o)
 .debug_str     0x0000000000000000      0x6b4 /usr/local/xenon/usr/lib/libxenon.a(stats.o)
 .comment       0x0000000000000000       0x12 /usr/local/xenon/usr/lib/libxenon.a(stats.o)
 .note.GNU-stack
                0x0000000000000000        0x0 /usr/local/xenon/usr/lib/libxenon.a(stats.o)
 .debug_frame   0x0000000000000000       0x20 /usr/local/xenon/usr/lib/libxenon.a(stats.o)
 COMMON         0x0000000000000000      0x158 /usr/local/xenon/usr/lib/libxenon.a(stats.o)
 .text          0x0000000000000000        0x0 /usr/local/xenon/usr/lib/libxenon.a(tcp.o)
 .data          0x0000000000000000        0x0 /usr/local/xenon/usr/lib/libxenon.a(tcp.o)
 .bss           0x0000000000000000        0x0 /usr/local/xenon/usr/lib/libxenon.a(tcp.o)
 .text.tcp_accept_null
                0x0000000000000000        0x8 /usr/local/xenon/usr/lib/libxenon.a(tcp.o)
 .text.tcp_new_port
                0x0000000000000000       0x90 /usr/local/xenon/usr/lib/libxenon.a(tcp.o)
 .text.tcp_init
                0x0000000000000000        0x4 /usr/local/xenon/usr/lib/libxenon.a(tcp.o)
 .text.tcp_bind
                0x0000000000000000      0x10c /usr/local/xenon/usr/lib/libxenon.a(tcp.o)
 .text.tcp_listen_with_backlog
                0x0000000000000000      0x154 /usr/local/xenon/usr/lib/libxenon.a(tcp.o)
 .text.tcp_update_rcv_ann_wnd
                0x0000000000000000       0x98 /usr/local/xenon/usr/lib/libxenon.a(tcp.o)
 .text.tcp_recved
                0x0000000000000000       0xd4 /usr/local/xenon/usr/lib/libxenon.a(tcp.o)
 .text.tcp_seg_free
                0x0000000000000000       0x4c /usr/local/xenon/usr/lib/libxenon.a(tcp.o)
 .text.tcp_segs_free
                0x0000000000000000       0x38 /usr/local/xenon/usr/lib/libxenon.a(tcp.o)
 .text.tcp_setprio
                0x0000000000000000        0x8 /usr/local/xenon/usr/lib/libxenon.a(tcp.o)
 .text.tcp_seg_copy
                0x0000000000000000       0x44 /usr/local/xenon/usr/lib/libxenon.a(tcp.o)
 .text.tcp_arg  0x0000000000000000        0x8 /usr/local/xenon/usr/lib/libxenon.a(tcp.o)
 .text.tcp_recv
                0x0000000000000000       0x40 /usr/local/xenon/usr/lib/libxenon.a(tcp.o)
 .text.tcp_sent
                0x0000000000000000       0x40 /usr/local/xenon/usr/lib/libxenon.a(tcp.o)
 .text.tcp_err  0x0000000000000000       0x40 /usr/local/xenon/usr/lib/libxenon.a(tcp.o)
 .text.tcp_accept
                0x0000000000000000        0x8 /usr/local/xenon/usr/lib/libxenon.a(tcp.o)
 .text.tcp_poll
                0x0000000000000000       0x44 /usr/local/xenon/usr/lib/libxenon.a(tcp.o)
 .text.tcp_pcb_purge
                0x0000000000000000       0x80 /usr/local/xenon/usr/lib/libxenon.a(tcp.o)
 .text.tcp_slowtmr
                0x0000000000000000      0x5a0 /usr/local/xenon/usr/lib/libxenon.a(tcp.o)
 .text.tcp_pcb_remove
                0x0000000000000000      0x15c /usr/local/xenon/usr/lib/libxenon.a(tcp.o)
 .text.tcp_close_shutdown
                0x0000000000000000      0x278 /usr/local/xenon/usr/lib/libxenon.a(tcp.o)
 .rodata.tcp_close_shutdown
                0x0000000000000000       0x20 /usr/local/xenon/usr/lib/libxenon.a(tcp.o)
 .text.tcp_close
                0x0000000000000000       0x20 /usr/local/xenon/usr/lib/libxenon.a(tcp.o)
 .text.tcp_recv_null
                0x0000000000000000       0x54 /usr/local/xenon/usr/lib/libxenon.a(tcp.o)
 .text.tcp_process_refused_data
                0x0000000000000000       0xd0 /usr/local/xenon/usr/lib/libxenon.a(tcp.o)
 .text.tcp_fasttmr
                0x0000000000000000       0xb4 /usr/local/xenon/usr/lib/libxenon.a(tcp.o)
 .text.tcp_tmr  0x0000000000000000       0x4c /usr/local/xenon/usr/lib/libxenon.a(tcp.o)
 .text.tcp_shutdown
                0x0000000000000000       0xb0 /usr/local/xenon/usr/lib/libxenon.a(tcp.o)
 .text.tcp_abandon
                0x0000000000000000      0x160 /usr/local/xenon/usr/lib/libxenon.a(tcp.o)
 .text.tcp_abort
                0x0000000000000000        0x8 /usr/local/xenon/usr/lib/libxenon.a(tcp.o)
 .text.tcp_next_iss
                0x0000000000000000       0x1c /usr/local/xenon/usr/lib/libxenon.a(tcp.o)
 .text.tcp_alloc
                0x0000000000000000      0x1d0 /usr/local/xenon/usr/lib/libxenon.a(tcp.o)
 .text.tcp_new  0x0000000000000000        0x8 /usr/local/xenon/usr/lib/libxenon.a(tcp.o)
 .text.tcp_eff_send_mss
                0x0000000000000000       0x58 /usr/local/xenon/usr/lib/libxenon.a(tcp.o)
 .text.tcp_connect
                0x0000000000000000      0x1e0 /usr/local/xenon/usr/lib/libxenon.a(tcp.o)
 .text.tcp_debug_state_str
                0x0000000000000000       0x14 /usr/local/xenon/usr/lib/libxenon.a(tcp.o)
 .bss.tcp_timer
                0x0000000000000000        0x1 /usr/local/xenon/usr/lib/libxenon.a(tcp.o)
 .bss.tcp_timer_ctr
                0x0000000000000000        0x1 /usr/local/xenon/usr/lib/libxenon.a(tcp.o)
 .data.iss.4419
                0x0000000000000000        0x4 /usr/local/xenon/usr/lib/libxenon.a(tcp.o)
 .data.tcp_port
                0x0000000000000000        0x2 /usr/local/xenon/usr/lib/libxenon.a(tcp.o)
 .rodata.str1.1
                0x0000000000000000       0x68 /usr/local/xenon/usr/lib/libxenon.a(tcp.o)
 .rodata.tcp_backoff
                0x0000000000000000        0xd /usr/local/xenon/usr/lib/libxenon.a(tcp.o)
 .rodata.tcp_bind.str1.1
                0x0000000000000000       0x2e /usr/local/xenon/usr/lib/libxenon.a(tcp.o)
 .rodata.tcp_pcb_lists
                0x0000000000000000       0x10 /usr/local/xenon/usr/lib/libxenon.a(tcp.o)
 .rodata.tcp_state_str
                0x0000000000000000       0x2c /usr/local/xenon/usr/lib/libxenon.a(tcp.o)
 .sdata.tcp_persist_backoff
                0x0000000000000000        0x7 /usr/local/xenon/usr/lib/libxenon.a(tcp.o)
 .debug_info    0x0000000000000000     0x29e7 /usr/local/xenon/usr/lib/libxenon.a(tcp.o)
 .debug_abbrev  0x0000000000000000      0x515 /usr/local/xenon/usr/lib/libxenon.a(tcp.o)
 .debug_loc     0x0000000000000000     0x1498 /usr/local/xenon/usr/lib/libxenon.a(tcp.o)
 .debug_aranges
                0x0000000000000000      0x130 /usr/local/xenon/usr/lib/libxenon.a(tcp.o)
 .debug_ranges  0x0000000000000000      0x270 /usr/local/xenon/usr/lib/libxenon.a(tcp.o)
 .debug_line    0x0000000000000000      0xa0a /usr/local/xenon/usr/lib/libxenon.a(tcp.o)
 .debug_str     0x0000000000000000      0xff9 /usr/local/xenon/usr/lib/libxenon.a(tcp.o)
 .comment       0x0000000000000000       0x12 /usr/local/xenon/usr/lib/libxenon.a(tcp.o)
 .note.GNU-stack
                0x0000000000000000        0x0 /usr/local/xenon/usr/lib/libxenon.a(tcp.o)
 .debug_frame   0x0000000000000000      0x49c /usr/local/xenon/usr/lib/libxenon.a(tcp.o)
 .sbss          0x0000000000000000       0x1c /usr/local/xenon/usr/lib/libxenon.a(tcp.o)
 .text          0x0000000000000000        0x0 /usr/local/xenon/usr/lib/libxenon.a(ip.o)
 .data          0x0000000000000000        0x0 /usr/local/xenon/usr/lib/libxenon.a(ip.o)
 .bss           0x0000000000000000        0x0 /usr/local/xenon/usr/lib/libxenon.a(ip.o)
 .text.ip_route
                0x0000000000000000       0x7c /usr/local/xenon/usr/lib/libxenon.a(ip.o)
 .text.ip_input
                0x0000000000000000      0x2d0 /usr/local/xenon/usr/lib/libxenon.a(ip.o)
 .text.ip_output_if
                0x0000000000000000      0x1e0 /usr/local/xenon/usr/lib/libxenon.a(ip.o)
 .text.ip_output
                0x0000000000000000       0xb0 /usr/local/xenon/usr/lib/libxenon.a(ip.o)
 .bss.ip_id     0x0000000000000000        0x2 /usr/local/xenon/usr/lib/libxenon.a(ip.o)
 .rodata.ip_output_if.str1.1
                0x0000000000000000       0x32 /usr/local/xenon/usr/lib/libxenon.a(ip.o)
 .debug_info    0x0000000000000000     0x1c92 /usr/local/xenon/usr/lib/libxenon.a(ip.o)
 .debug_abbrev  0x0000000000000000      0x323 /usr/local/xenon/usr/lib/libxenon.a(ip.o)
 .debug_loc     0x0000000000000000      0x6a4 /usr/local/xenon/usr/lib/libxenon.a(ip.o)
 .debug_aranges
                0x0000000000000000       0x38 /usr/local/xenon/usr/lib/libxenon.a(ip.o)
 .debug_ranges  0x0000000000000000       0x60 /usr/local/xenon/usr/lib/libxenon.a(ip.o)
 .debug_line    0x0000000000000000      0x3a9 /usr/local/xenon/usr/lib/libxenon.a(ip.o)
 .debug_str     0x0000000000000000      0xe83 /usr/local/xenon/usr/lib/libxenon.a(ip.o)
 .comment       0x0000000000000000       0x12 /usr/local/xenon/usr/lib/libxenon.a(ip.o)
 .note.GNU-stack
                0x0000000000000000        0x0 /usr/local/xenon/usr/lib/libxenon.a(ip.o)
 .debug_frame   0x0000000000000000       0xb4 /usr/local/xenon/usr/lib/libxenon.a(ip.o)
 .sbss          0x0000000000000000       0x10 /usr/local/xenon/usr/lib/libxenon.a(ip.o)
 .text          0x0000000000000000        0x0 /usr/local/xenon/usr/lib/libxenon.a(ip_frag.o)
 .data          0x0000000000000000        0x0 /usr/local/xenon/usr/lib/libxenon.a(ip_frag.o)
 .bss           0x0000000000000000        0x0 /usr/local/xenon/usr/lib/libxenon.a(ip_frag.o)
 .text.ip_reass_dequeue_datagram
                0x0000000000000000       0x64 /usr/local/xenon/usr/lib/libxenon.a(ip_frag.o)
 .text.ip_reass_free_complete_datagram
                0x0000000000000000      0x178 /usr/local/xenon/usr/lib/libxenon.a(ip_frag.o)
 .text.ip_reass_remove_oldest_datagram
                0x0000000000000000       0xd0 /usr/local/xenon/usr/lib/libxenon.a(ip_frag.o)
 .text.ipfrag_free_pbuf_custom
                0x0000000000000000       0x64 /usr/local/xenon/usr/lib/libxenon.a(ip_frag.o)
 .text.ip_reass_tmr
                0x0000000000000000       0x60 /usr/local/xenon/usr/lib/libxenon.a(ip_frag.o)
 .text.ip_reass
                0x0000000000000000      0x484 /usr/local/xenon/usr/lib/libxenon.a(ip_frag.o)
 .text.ip_frag  0x0000000000000000      0x224 /usr/local/xenon/usr/lib/libxenon.a(ip_frag.o)
 .bss.ip_reass_pbufcount
                0x0000000000000000        0x2 /usr/local/xenon/usr/lib/libxenon.a(ip_frag.o)
 .bss.reassdatagrams
                0x0000000000000000        0x4 /usr/local/xenon/usr/lib/libxenon.a(ip_frag.o)
 .rodata.ip_reass_dequeue_datagram.str1.1
                0x0000000000000000       0x37 /usr/local/xenon/usr/lib/libxenon.a(ip_frag.o)
 .debug_info    0x0000000000000000     0x1ae4 /usr/local/xenon/usr/lib/libxenon.a(ip_frag.o)
 .debug_abbrev  0x0000000000000000      0x45b /usr/local/xenon/usr/lib/libxenon.a(ip_frag.o)
 .debug_loc     0x0000000000000000      0xaea /usr/local/xenon/usr/lib/libxenon.a(ip_frag.o)
 .debug_aranges
                0x0000000000000000       0x50 /usr/local/xenon/usr/lib/libxenon.a(ip_frag.o)
 .debug_ranges  0x0000000000000000      0x110 /usr/local/xenon/usr/lib/libxenon.a(ip_frag.o)
 .debug_line    0x0000000000000000      0x491 /usr/local/xenon/usr/lib/libxenon.a(ip_frag.o)
 .debug_str     0x0000000000000000      0xc13 /usr/local/xenon/usr/lib/libxenon.a(ip_frag.o)
 .comment       0x0000000000000000       0x12 /usr/local/xenon/usr/lib/libxenon.a(ip_frag.o)
 .note.GNU-stack
                0x0000000000000000        0x0 /usr/local/xenon/usr/lib/libxenon.a(ip_frag.o)
 .debug_frame   0x0000000000000000      0x168 /usr/local/xenon/usr/lib/libxenon.a(ip_frag.o)
 .text          0x0000000000000000        0x0 /usr/local/xenon/usr/lib/libxenon.a(tcp_out.o)
 .data          0x0000000000000000        0x0 /usr/local/xenon/usr/lib/libxenon.a(tcp_out.o)
 .bss           0x0000000000000000        0x0 /usr/local/xenon/usr/lib/libxenon.a(tcp_out.o)
 .text.tcp_pbuf_prealloc
                0x0000000000000000       0xc8 /usr/local/xenon/usr/lib/libxenon.a(tcp_out.o)
 .text.tcp_create_segment
                0x0000000000000000       0xec /usr/local/xenon/usr/lib/libxenon.a(tcp_out.o)
 .text.tcp_output_alloc_header.constprop.1
                0x0000000000000000       0xb0 /usr/local/xenon/usr/lib/libxenon.a(tcp_out.o)
 .text.tcp_write
                0x0000000000000000      0x6c8 /usr/local/xenon/usr/lib/libxenon.a(tcp_out.o)
 .text.tcp_enqueue_flags
                0x0000000000000000      0x240 /usr/local/xenon/usr/lib/libxenon.a(tcp_out.o)
 .text.tcp_send_fin
                0x0000000000000000       0x50 /usr/local/xenon/usr/lib/libxenon.a(tcp_out.o)
 .text.tcp_send_empty_ack
                0x0000000000000000       0x90 /usr/local/xenon/usr/lib/libxenon.a(tcp_out.o)
 .text.tcp_output
                0x0000000000000000      0x3d4 /usr/local/xenon/usr/lib/libxenon.a(tcp_out.o)
 .text.tcp_rst  0x0000000000000000      0x124 /usr/local/xenon/usr/lib/libxenon.a(tcp_out.o)
 .text.tcp_rexmit_rto
                0x0000000000000000       0x48 /usr/local/xenon/usr/lib/libxenon.a(tcp_out.o)
 .text.tcp_rexmit
                0x0000000000000000       0x78 /usr/local/xenon/usr/lib/libxenon.a(tcp_out.o)
 .text.tcp_rexmit_fast
                0x0000000000000000       0x90 /usr/local/xenon/usr/lib/libxenon.a(tcp_out.o)
 .text.tcp_keepalive
                0x0000000000000000       0xac /usr/local/xenon/usr/lib/libxenon.a(tcp_out.o)
 .text.tcp_zero_window_probe
                0x0000000000000000      0x124 /usr/local/xenon/usr/lib/libxenon.a(tcp_out.o)
 .rodata.tcp_pbuf_prealloc.str1.1
                0x0000000000000000       0x32 /usr/local/xenon/usr/lib/libxenon.a(tcp_out.o)
 .debug_info    0x0000000000000000     0x2595 /usr/local/xenon/usr/lib/libxenon.a(tcp_out.o)
 .debug_abbrev  0x0000000000000000      0x4a0 /usr/local/xenon/usr/lib/libxenon.a(tcp_out.o)
 .debug_loc     0x0000000000000000     0x15e3 /usr/local/xenon/usr/lib/libxenon.a(tcp_out.o)
 .debug_aranges
                0x0000000000000000       0x88 /usr/local/xenon/usr/lib/libxenon.a(tcp_out.o)
 .debug_ranges  0x0000000000000000      0x150 /usr/local/xenon/usr/lib/libxenon.a(tcp_out.o)
 .debug_line    0x0000000000000000      0x743 /usr/local/xenon/usr/lib/libxenon.a(tcp_out.o)
 .debug_str     0x0000000000000000      0xeb2 /usr/local/xenon/usr/lib/libxenon.a(tcp_out.o)
 .comment       0x0000000000000000       0x12 /usr/local/xenon/usr/lib/libxenon.a(tcp_out.o)
 .note.GNU-stack
                0x0000000000000000        0x0 /usr/local/xenon/usr/lib/libxenon.a(tcp_out.o)
 .debug_frame   0x0000000000000000      0x294 /usr/local/xenon/usr/lib/libxenon.a(tcp_out.o)
 .text          0x0000000000000000        0x0 /usr/local/xenon/usr/lib/libxenon.a(udp.o)
 .data          0x0000000000000000        0x0 /usr/local/xenon/usr/lib/libxenon.a(udp.o)
 .bss           0x0000000000000000        0x0 /usr/local/xenon/usr/lib/libxenon.a(udp.o)
 .text.udp_init
                0x0000000000000000        0x4 /usr/local/xenon/usr/lib/libxenon.a(udp.o)
 .text.udp_input
                0x0000000000000000      0x368 /usr/local/xenon/usr/lib/libxenon.a(udp.o)
 .text.udp_bind
                0x0000000000000000      0x144 /usr/local/xenon/usr/lib/libxenon.a(udp.o)
 .text.udp_sendto_if
                0x0000000000000000      0x1a4 /usr/local/xenon/usr/lib/libxenon.a(udp.o)
 .text.udp_sendto
                0x0000000000000000       0x74 /usr/local/xenon/usr/lib/libxenon.a(udp.o)
 .text.udp_send
                0x0000000000000000        0xc /usr/local/xenon/usr/lib/libxenon.a(udp.o)
 .text.udp_connect
                0x0000000000000000       0xa0 /usr/local/xenon/usr/lib/libxenon.a(udp.o)
 .text.udp_disconnect
                0x0000000000000000       0x1c /usr/local/xenon/usr/lib/libxenon.a(udp.o)
 .text.udp_recv
                0x0000000000000000        0xc /usr/local/xenon/usr/lib/libxenon.a(udp.o)
 .text.udp_remove
                0x0000000000000000       0x50 /usr/local/xenon/usr/lib/libxenon.a(udp.o)
 .text.udp_new  0x0000000000000000       0x40 /usr/local/xenon/usr/lib/libxenon.a(udp.o)
 .data.udp_port
                0x0000000000000000        0x2 /usr/local/xenon/usr/lib/libxenon.a(udp.o)
 .rodata.udp_input.str1.1
                0x0000000000000000       0x2e /usr/local/xenon/usr/lib/libxenon.a(udp.o)
 .debug_info    0x0000000000000000     0x195c /usr/local/xenon/usr/lib/libxenon.a(udp.o)
 .debug_abbrev  0x0000000000000000      0x434 /usr/local/xenon/usr/lib/libxenon.a(udp.o)
 .debug_loc     0x0000000000000000      0x937 /usr/local/xenon/usr/lib/libxenon.a(udp.o)
 .debug_aranges
                0x0000000000000000       0x70 /usr/local/xenon/usr/lib/libxenon.a(udp.o)
 .debug_ranges  0x0000000000000000       0xa0 /usr/local/xenon/usr/lib/libxenon.a(udp.o)
 .debug_line    0x0000000000000000      0x521 /usr/local/xenon/usr/lib/libxenon.a(udp.o)
 .debug_str     0x0000000000000000      0xc44 /usr/local/xenon/usr/lib/libxenon.a(udp.o)
 .comment       0x0000000000000000       0x12 /usr/local/xenon/usr/lib/libxenon.a(udp.o)
 .note.GNU-stack
                0x0000000000000000        0x0 /usr/local/xenon/usr/lib/libxenon.a(udp.o)
 .debug_frame   0x0000000000000000      0x174 /usr/local/xenon/usr/lib/libxenon.a(udp.o)
 .sbss          0x0000000000000000        0x4 /usr/local/xenon/usr/lib/libxenon.a(udp.o)
 .text          0x0000000000000000        0x0 /usr/local/xenon/usr/lib/libxenon.a(etharp.o)
 .data          0x0000000000000000        0x0 /usr/local/xenon/usr/lib/libxenon.a(etharp.o)
 .bss           0x0000000000000000        0x0 /usr/local/xenon/usr/lib/libxenon.a(etharp.o)
 .text.etharp_free_entry
                0x0000000000000000       0xbc /usr/local/xenon/usr/lib/libxenon.a(etharp.o)
 .text.etharp_find_entry
                0x0000000000000000      0x1c0 /usr/local/xenon/usr/lib/libxenon.a(etharp.o)
 .text.etharp_send_ip
                0x0000000000000000       0x70 /usr/local/xenon/usr/lib/libxenon.a(etharp.o)
 .text.etharp_update_arp_entry
                0x0000000000000000      0x12c /usr/local/xenon/usr/lib/libxenon.a(etharp.o)
 .text.etharp_tmr
                0x0000000000000000       0x88 /usr/local/xenon/usr/lib/libxenon.a(etharp.o)
 .text.etharp_cleanup_netif
                0x0000000000000000       0x5c /usr/local/xenon/usr/lib/libxenon.a(etharp.o)
 .text.etharp_find_addr
                0x0000000000000000       0xa0 /usr/local/xenon/usr/lib/libxenon.a(etharp.o)
 .text.etharp_request
                0x0000000000000000      0x198 /usr/local/xenon/usr/lib/libxenon.a(etharp.o)
 .text.etharp_output_to_arp_index
                0x0000000000000000       0xc0 /usr/local/xenon/usr/lib/libxenon.a(etharp.o)
 .text.etharp_query
                0x0000000000000000      0x294 /usr/local/xenon/usr/lib/libxenon.a(etharp.o)
 .text.etharp_output
                0x0000000000000000      0x230 /usr/local/xenon/usr/lib/libxenon.a(etharp.o)
 .text.ethernet_input
                0x0000000000000000      0x304 /usr/local/xenon/usr/lib/libxenon.a(etharp.o)
 .bss.arp_table
                0x0000000000000000       0xc8 /usr/local/xenon/usr/lib/libxenon.a(etharp.o)
 .bss.etharp_cached_entry
                0x0000000000000000        0x1 /usr/local/xenon/usr/lib/libxenon.a(etharp.o)
 .rodata.etharp_free_entry.str1.1
                0x0000000000000000       0x32 /usr/local/xenon/usr/lib/libxenon.a(etharp.o)
 .sdata.ethbroadcast
                0x0000000000000000        0x6 /usr/local/xenon/usr/lib/libxenon.a(etharp.o)
 .sdata.ethzero
                0x0000000000000000        0x6 /usr/local/xenon/usr/lib/libxenon.a(etharp.o)
 .debug_info    0x0000000000000000     0x2232 /usr/local/xenon/usr/lib/libxenon.a(etharp.o)
 .debug_abbrev  0x0000000000000000      0x480 /usr/local/xenon/usr/lib/libxenon.a(etharp.o)
 .debug_loc     0x0000000000000000     0x1327 /usr/local/xenon/usr/lib/libxenon.a(etharp.o)
 .debug_aranges
                0x0000000000000000       0x78 /usr/local/xenon/usr/lib/libxenon.a(etharp.o)
 .debug_ranges  0x0000000000000000      0x140 /usr/local/xenon/usr/lib/libxenon.a(etharp.o)
 .debug_line    0x0000000000000000      0x60c /usr/local/xenon/usr/lib/libxenon.a(etharp.o)
 .debug_str     0x0000000000000000      0xe1a /usr/local/xenon/usr/lib/libxenon.a(etharp.o)
 .comment       0x0000000000000000       0x12 /usr/local/xenon/usr/lib/libxenon.a(etharp.o)
 .note.GNU-stack
                0x0000000000000000        0x0 /usr/local/xenon/usr/lib/libxenon.a(etharp.o)
 .debug_frame   0x0000000000000000      0x224 /usr/local/xenon/usr/lib/libxenon.a(etharp.o)
 .text          0x0000000000000000        0x0 /usr/local/xenon/usr/lib/libxenon.a(dhcp.o)
 .data          0x0000000000000000        0x0 /usr/local/xenon/usr/lib/libxenon.a(dhcp.o)
 .bss           0x0000000000000000        0x0 /usr/local/xenon/usr/lib/libxenon.a(dhcp.o)
 .text.dhcp_set_state
                0x0000000000000000       0x24 /usr/local/xenon/usr/lib/libxenon.a(dhcp.o)
 .text.dhcp_check
                0x0000000000000000       0x54 /usr/local/xenon/usr/lib/libxenon.a(dhcp.o)
 .text.dhcp_bind
                0x0000000000000000      0x1a4 /usr/local/xenon/usr/lib/libxenon.a(dhcp.o)
 .text.dhcp_option_byte
                0x0000000000000000       0x50 /usr/local/xenon/usr/lib/libxenon.a(dhcp.o)
 .text.dhcp_option
                0x0000000000000000       0x68 /usr/local/xenon/usr/lib/libxenon.a(dhcp.o)
 .text.dhcp_option_short
                0x0000000000000000       0x64 /usr/local/xenon/usr/lib/libxenon.a(dhcp.o)
 .text.dhcp_option_trailer
                0x0000000000000000       0xd4 /usr/local/xenon/usr/lib/libxenon.a(dhcp.o)
 .text.dhcp_option_long
                0x0000000000000000       0x8c /usr/local/xenon/usr/lib/libxenon.a(dhcp.o)
 .text.dhcp_create_msg
                0x0000000000000000      0x270 /usr/local/xenon/usr/lib/libxenon.a(dhcp.o)
 .text.dhcp_option_hostname.isra.7
                0x0000000000000000       0xa0 /usr/local/xenon/usr/lib/libxenon.a(dhcp.o)
 .text.dhcp_delete_msg
                0x0000000000000000       0xa8 /usr/local/xenon/usr/lib/libxenon.a(dhcp.o)
 .text.dhcp_rebind
                0x0000000000000000       0xe8 /usr/local/xenon/usr/lib/libxenon.a(dhcp.o)
 .text.dhcp_select
                0x0000000000000000      0x164 /usr/local/xenon/usr/lib/libxenon.a(dhcp.o)
 .text.dhcp_reboot
                0x0000000000000000       0xf8 /usr/local/xenon/usr/lib/libxenon.a(dhcp.o)
 .text.dhcp_discover
                0x0000000000000000      0x128 /usr/local/xenon/usr/lib/libxenon.a(dhcp.o)
 .text.dhcp_recv
                0x0000000000000000      0x7c4 /usr/local/xenon/usr/lib/libxenon.a(dhcp.o)
 .text.dhcp_set_struct
                0x0000000000000000       0xb0 /usr/local/xenon/usr/lib/libxenon.a(dhcp.o)
 .text.dhcp_cleanup
                0x0000000000000000       0x58 /usr/local/xenon/usr/lib/libxenon.a(dhcp.o)
 .text.dhcp_inform
                0x0000000000000000      0x128 /usr/local/xenon/usr/lib/libxenon.a(dhcp.o)
 .text.dhcp_network_changed
                0x0000000000000000       0x98 /usr/local/xenon/usr/lib/libxenon.a(dhcp.o)
 .text.dhcp_arp_reply
                0x0000000000000000      0x100 /usr/local/xenon/usr/lib/libxenon.a(dhcp.o)
 .text.dhcp_renew
                0x0000000000000000       0xe4 /usr/local/xenon/usr/lib/libxenon.a(dhcp.o)
 .text.dhcp_coarse_tmr
                0x0000000000000000       0xa8 /usr/local/xenon/usr/lib/libxenon.a(dhcp.o)
 .text.dhcp_release
                0x0000000000000000      0x110 /usr/local/xenon/usr/lib/libxenon.a(dhcp.o)
 .text.dhcp_fine_tmr
                0x0000000000000000      0x124 /usr/local/xenon/usr/lib/libxenon.a(dhcp.o)
 .text.dhcp_stop
                0x0000000000000000       0xb8 /usr/local/xenon/usr/lib/libxenon.a(dhcp.o)
 .text.dhcp_start
                0x0000000000000000      0x188 /usr/local/xenon/usr/lib/libxenon.a(dhcp.o)
 .data.xid.4301
                0x0000000000000000        0x4 /usr/local/xenon/usr/lib/libxenon.a(dhcp.o)
 .rodata.dhcp_bind.str1.1
                0x0000000000000000       0x2f /usr/local/xenon/usr/lib/libxenon.a(dhcp.o)
 .debug_info    0x0000000000000000     0x32ff /usr/local/xenon/usr/lib/libxenon.a(dhcp.o)
 .debug_abbrev  0x0000000000000000      0x4ab /usr/local/xenon/usr/lib/libxenon.a(dhcp.o)
 .debug_loc     0x0000000000000000     0x18ea /usr/local/xenon/usr/lib/libxenon.a(dhcp.o)
 .debug_aranges
                0x0000000000000000       0xf0 /usr/local/xenon/usr/lib/libxenon.a(dhcp.o)
 .debug_ranges  0x0000000000000000      0x2e8 /usr/local/xenon/usr/lib/libxenon.a(dhcp.o)
 .debug_line    0x0000000000000000      0x8ac /usr/local/xenon/usr/lib/libxenon.a(dhcp.o)
 .debug_str     0x0000000000000000      0xeb5 /usr/local/xenon/usr/lib/libxenon.a(dhcp.o)
 .comment       0x0000000000000000       0x12 /usr/local/xenon/usr/lib/libxenon.a(dhcp.o)
 .note.GNU-stack
                0x0000000000000000        0x0 /usr/local/xenon/usr/lib/libxenon.a(dhcp.o)
 .debug_frame   0x0000000000000000      0x408 /usr/local/xenon/usr/lib/libxenon.a(dhcp.o)
 COMMON         0x0000000000000000       0x34 /usr/local/xenon/usr/lib/libxenon.a(dhcp.o)
 .text          0x0000000000000000        0x0 /usr/local/xenon/usr/lib/libxenon.a(raw.o)
 .data          0x0000000000000000        0x0 /usr/local/xenon/usr/lib/libxenon.a(raw.o)
 .bss           0x0000000000000000        0x0 /usr/local/xenon/usr/lib/libxenon.a(raw.o)
 .text.raw_input
                0x0000000000000000       0xe0 /usr/local/xenon/usr/lib/libxenon.a(raw.o)
 .text.raw_bind
                0x0000000000000000       0x1c /usr/local/xenon/usr/lib/libxenon.a(raw.o)
 .text.raw_connect
                0x0000000000000000       0x1c /usr/local/xenon/usr/lib/libxenon.a(raw.o)
 .text.raw_recv
                0x0000000000000000        0xc /usr/local/xenon/usr/lib/libxenon.a(raw.o)
 .text.raw_sendto
                0x0000000000000000      0x104 /usr/local/xenon/usr/lib/libxenon.a(raw.o)
 .text.raw_send
                0x0000000000000000        0x8 /usr/local/xenon/usr/lib/libxenon.a(raw.o)
 .text.raw_remove
                0x0000000000000000       0x50 /usr/local/xenon/usr/lib/libxenon.a(raw.o)
 .text.raw_new  0x0000000000000000       0x5c /usr/local/xenon/usr/lib/libxenon.a(raw.o)
 .bss.raw_pcbs  0x0000000000000000        0x4 /usr/local/xenon/usr/lib/libxenon.a(raw.o)
 .rodata.raw_sendto.str1.1
                0x0000000000000000       0x2e /usr/local/xenon/usr/lib/libxenon.a(raw.o)
 .debug_info    0x0000000000000000     0x12dc /usr/local/xenon/usr/lib/libxenon.a(raw.o)
 .debug_abbrev  0x0000000000000000      0x318 /usr/local/xenon/usr/lib/libxenon.a(raw.o)
 .debug_loc     0x0000000000000000      0x2ec /usr/local/xenon/usr/lib/libxenon.a(raw.o)
 .debug_aranges
                0x0000000000000000       0x58 /usr/local/xenon/usr/lib/libxenon.a(raw.o)
 .debug_ranges  0x0000000000000000       0x48 /usr/local/xenon/usr/lib/libxenon.a(raw.o)
 .debug_line    0x0000000000000000      0x2f4 /usr/local/xenon/usr/lib/libxenon.a(raw.o)
 .debug_str     0x0000000000000000      0x9d4 /usr/local/xenon/usr/lib/libxenon.a(raw.o)
 .comment       0x0000000000000000       0x12 /usr/local/xenon/usr/lib/libxenon.a(raw.o)
 .note.GNU-stack
                0x0000000000000000        0x0 /usr/local/xenon/usr/lib/libxenon.a(raw.o)
 .debug_frame   0x0000000000000000       0xe4 /usr/local/xenon/usr/lib/libxenon.a(raw.o)
 .text          0x0000000000000000        0x0 /usr/local/xenon/usr/lib/libxenon.a(timers.o)
 .data          0x0000000000000000        0x0 /usr/local/xenon/usr/lib/libxenon.a(timers.o)
 .bss           0x0000000000000000        0x0 /usr/local/xenon/usr/lib/libxenon.a(timers.o)
 .text.tcp_timer_needed
                0x0000000000000000        0x4 /usr/local/xenon/usr/lib/libxenon.a(timers.o)
 .debug_info    0x0000000000000000     0x11d6 /usr/local/xenon/usr/lib/libxenon.a(timers.o)
 .debug_abbrev  0x0000000000000000      0x1e6 /usr/local/xenon/usr/lib/libxenon.a(timers.o)
 .debug_aranges
                0x0000000000000000       0x20 /usr/local/xenon/usr/lib/libxenon.a(timers.o)
 .debug_ranges  0x0000000000000000       0x10 /usr/local/xenon/usr/lib/libxenon.a(timers.o)
 .debug_line    0x0000000000000000      0x18b /usr/local/xenon/usr/lib/libxenon.a(timers.o)
 .debug_str     0x0000000000000000      0xa89 /usr/local/xenon/usr/lib/libxenon.a(timers.o)
 .comment       0x0000000000000000       0x12 /usr/local/xenon/usr/lib/libxenon.a(timers.o)
 .note.GNU-stack
                0x0000000000000000        0x0 /usr/local/xenon/usr/lib/libxenon.a(timers.o)
 .debug_frame   0x0000000000000000       0x20 /usr/local/xenon/usr/lib/libxenon.a(timers.o)
 .text          0x0000000000000000        0x0 /usr/local/xenon/usr/lib/libxenon.a(hmac_sha1.o)
 .data          0x0000000000000000        0x0 /usr/local/xenon/usr/lib/libxenon.a(hmac_sha1.o)
 .bss           0x0000000000000000        0x0 /usr/local/xenon/usr/lib/libxenon.a(hmac_sha1.o)
 .text.HMAC_SHA1_UpdateKey.part.0
                0x0000000000000000       0xbc /usr/local/xenon/usr/lib/libxenon.a(hmac_sha1.o)
 .text.HMAC_SHA1_Init
                0x0000000000000000       0x58 /usr/local/xenon/usr/lib/libxenon.a(hmac_sha1.o)
 .text.HMAC_SHA1_UpdateKey
                0x0000000000000000        0xc /usr/local/xenon/usr/lib/libxenon.a(hmac_sha1.o)
 .text.HMAC_SHA1_EndKey
                0x0000000000000000       0xa8 /usr/local/xenon/usr/lib/libxenon.a(hmac_sha1.o)
 .text.HMAC_SHA1_StartMessage
                0x0000000000000000       0x48 /usr/local/xenon/usr/lib/libxenon.a(hmac_sha1.o)
 .text.HMAC_SHA1_UpdateMessage
                0x0000000000000000        0x8 /usr/local/xenon/usr/lib/libxenon.a(hmac_sha1.o)
 .text.HMAC_SHA1_EndMessage
                0x0000000000000000       0x68 /usr/local/xenon/usr/lib/libxenon.a(hmac_sha1.o)
 .text.HMAC_SHA1_Done
                0x0000000000000000       0x44 /usr/local/xenon/usr/lib/libxenon.a(hmac_sha1.o)
 .text.HMAC_SHA1
                0x0000000000000000       0x84 /usr/local/xenon/usr/lib/libxenon.a(hmac_sha1.o)
 .debug_info    0x0000000000000000      0xf8e /usr/local/xenon/usr/lib/libxenon.a(hmac_sha1.o)
 .debug_abbrev  0x0000000000000000      0x2a7 /usr/local/xenon/usr/lib/libxenon.a(hmac_sha1.o)
 .debug_loc     0x0000000000000000      0x45f /usr/local/xenon/usr/lib/libxenon.a(hmac_sha1.o)
 .debug_aranges
                0x0000000000000000       0x60 /usr/local/xenon/usr/lib/libxenon.a(hmac_sha1.o)
 .debug_ranges  0x0000000000000000       0x50 /usr/local/xenon/usr/lib/libxenon.a(hmac_sha1.o)
 .debug_line    0x0000000000000000      0x227 /usr/local/xenon/usr/lib/libxenon.a(hmac_sha1.o)
 .debug_str     0x0000000000000000      0x6ad /usr/local/xenon/usr/lib/libxenon.a(hmac_sha1.o)
 .comment       0x0000000000000000       0x12 /usr/local/xenon/usr/lib/libxenon.a(hmac_sha1.o)
 .note.GNU-stack
                0x0000000000000000        0x0 /usr/local/xenon/usr/lib/libxenon.a(hmac_sha1.o)
 .debug_frame   0x0000000000000000      0x140 /usr/local/xenon/usr/lib/libxenon.a(hmac_sha1.o)
 .text          0x0000000000000000        0x0 /usr/local/xenon/usr/lib/libxenon.a(rc4.o)
 .data          0x0000000000000000        0x0 /usr/local/xenon/usr/lib/libxenon.a(rc4.o)
 .bss           0x0000000000000000        0x0 /usr/local/xenon/usr/lib/libxenon.a(rc4.o)
 .text.rc4_init
                0x0000000000000000       0x60 /usr/local/xenon/usr/lib/libxenon.a(rc4.o)
 .text.rc4_crypt
                0x0000000000000000       0x70 /usr/local/xenon/usr/lib/libxenon.a(rc4.o)
 .debug_info    0x0000000000000000      0x112 /usr/local/xenon/usr/lib/libxenon.a(rc4.o)
 .debug_abbrev  0x0000000000000000       0xbf /usr/local/xenon/usr/lib/libxenon.a(rc4.o)
 .debug_loc     0x0000000000000000      0x142 /usr/local/xenon/usr/lib/libxenon.a(rc4.o)
 .debug_aranges
                0x0000000000000000       0x28 /usr/local/xenon/usr/lib/libxenon.a(rc4.o)
 .debug_ranges  0x0000000000000000       0x18 /usr/local/xenon/usr/lib/libxenon.a(rc4.o)
 .debug_line    0x0000000000000000       0xa5 /usr/local/xenon/usr/lib/libxenon.a(rc4.o)
 .debug_str     0x0000000000000000      0x109 /usr/local/xenon/usr/lib/libxenon.a(rc4.o)
 .comment       0x0000000000000000       0x12 /usr/local/xenon/usr/lib/libxenon.a(rc4.o)
 .note.GNU-stack
                0x0000000000000000        0x0 /usr/local/xenon/usr/lib/libxenon.a(rc4.o)
 .debug_frame   0x0000000000000000       0x30 /usr/local/xenon/usr/lib/libxenon.a(rc4.o)
 .text          0x0000000000000000        0x0 /usr/local/xenon/usr/lib/libxenon.a(sha1.o)
 .data          0x0000000000000000        0x0 /usr/local/xenon/usr/lib/libxenon.a(sha1.o)
 .bss           0x0000000000000000        0x0 /usr/local/xenon/usr/lib/libxenon.a(sha1.o)
 .text.SHA1_Transform
                0x0000000000000000     0x111c /usr/local/xenon/usr/lib/libxenon.a(sha1.o)
 .text.SHA1_Init
                0x0000000000000000       0x4c /usr/local/xenon/usr/lib/libxenon.a(sha1.o)
 .text.SHA1_Update
                0x0000000000000000       0xe0 /usr/local/xenon/usr/lib/libxenon.a(sha1.o)
 .text.SHA1_Final
                0x0000000000000000      0x104 /usr/local/xenon/usr/lib/libxenon.a(sha1.o)
 .rodata        0x0000000000000000        0x2 /usr/local/xenon/usr/lib/libxenon.a(sha1.o)
 .rodata.SHA1_Final.str1.1
                0x0000000000000000        0x2 /usr/local/xenon/usr/lib/libxenon.a(sha1.o)
 .debug_info    0x0000000000000000      0xbb2 /usr/local/xenon/usr/lib/libxenon.a(sha1.o)
 .debug_abbrev  0x0000000000000000      0x23e /usr/local/xenon/usr/lib/libxenon.a(sha1.o)
 .debug_loc     0x0000000000000000      0xaca /usr/local/xenon/usr/lib/libxenon.a(sha1.o)
 .debug_aranges
                0x0000000000000000       0x38 /usr/local/xenon/usr/lib/libxenon.a(sha1.o)
 .debug_ranges  0x0000000000000000       0x28 /usr/local/xenon/usr/lib/libxenon.a(sha1.o)
 .debug_line    0x0000000000000000      0x287 /usr/local/xenon/usr/lib/libxenon.a(sha1.o)
 .debug_str     0x0000000000000000      0x615 /usr/local/xenon/usr/lib/libxenon.a(sha1.o)
 .comment       0x0000000000000000       0x12 /usr/local/xenon/usr/lib/libxenon.a(sha1.o)
 .note.GNU-stack
                0x0000000000000000        0x0 /usr/local/xenon/usr/lib/libxenon.a(sha1.o)
 .debug_frame   0x0000000000000000       0xd0 /usr/local/xenon/usr/lib/libxenon.a(sha1.o)
 .text          0x0000000000000000        0x0 /usr/local/xenon/usr/lib/libxenon.a(lib_queue.o)
 .data          0x0000000000000000        0x0 /usr/local/xenon/usr/lib/libxenon.a(lib_queue.o)
 .bss           0x0000000000000000        0x0 /usr/local/xenon/usr/lib/libxenon.a(lib_queue.o)
 .text.q_dequeue
                0x0000000000000000       0x18 /usr/local/xenon/usr/lib/libxenon.a(lib_queue.o)
 .text.q_map    0x0000000000000000       0x64 /usr/local/xenon/usr/lib/libxenon.a(lib_queue.o)
 .text.q_count  0x0000000000000000       0x24 /usr/local/xenon/usr/lib/libxenon.a(lib_queue.o)
 .text.q_find   0x0000000000000000       0x34 /usr/local/xenon/usr/lib/libxenon.a(lib_queue.o)
 .text          0x0000000000000000        0x0 /usr/local/xenon/usr/lib/libxenon.a(tcp_in.o)
 .data          0x0000000000000000        0x0 /usr/local/xenon/usr/lib/libxenon.a(tcp_in.o)
 .bss           0x0000000000000000        0x0 /usr/local/xenon/usr/lib/libxenon.a(tcp_in.o)
 .text.unlikely.tcp_oos_insert_segment
                0x0000000000000000       0xc0 /usr/local/xenon/usr/lib/libxenon.a(tcp_in.o)
 .text.unlikely.tcp_receive
                0x0000000000000000      0xd58 /usr/local/xenon/usr/lib/libxenon.a(tcp_in.o)
 .text.unlikely.tcp_parseopt.isra.0
                0x0000000000000000       0xb8 /usr/local/xenon/usr/lib/libxenon.a(tcp_in.o)
 .text.tcp_input
                0x0000000000000000      0xd98 /usr/local/xenon/usr/lib/libxenon.a(tcp_in.o)
 .rodata.tcp_input
                0x0000000000000000       0x20 /usr/local/xenon/usr/lib/libxenon.a(tcp_in.o)
 .bss.ackno     0x0000000000000000        0x4 /usr/local/xenon/usr/lib/libxenon.a(tcp_in.o)
 .bss.flags     0x0000000000000000        0x1 /usr/local/xenon/usr/lib/libxenon.a(tcp_in.o)
 .bss.inseg     0x0000000000000000       0x10 /usr/local/xenon/usr/lib/libxenon.a(tcp_in.o)
 .bss.recv_data
                0x0000000000000000        0x4 /usr/local/xenon/usr/lib/libxenon.a(tcp_in.o)
 .bss.recv_flags
                0x0000000000000000        0x1 /usr/local/xenon/usr/lib/libxenon.a(tcp_in.o)
 .bss.seqno     0x0000000000000000        0x4 /usr/local/xenon/usr/lib/libxenon.a(tcp_in.o)
 .bss.tcphdr    0x0000000000000000        0x4 /usr/local/xenon/usr/lib/libxenon.a(tcp_in.o)
 .bss.tcplen    0x0000000000000000        0x2 /usr/local/xenon/usr/lib/libxenon.a(tcp_in.o)
 .rodata.tcp_receive.str1.1
                0x0000000000000000       0x31 /usr/local/xenon/usr/lib/libxenon.a(tcp_in.o)
 .debug_info    0x0000000000000000     0x21da /usr/local/xenon/usr/lib/libxenon.a(tcp_in.o)
 .debug_abbrev  0x0000000000000000      0x41b /usr/local/xenon/usr/lib/libxenon.a(tcp_in.o)
 .debug_loc     0x0000000000000000      0x924 /usr/local/xenon/usr/lib/libxenon.a(tcp_in.o)
 .debug_aranges
                0x0000000000000000       0x38 /usr/local/xenon/usr/lib/libxenon.a(tcp_in.o)
 .debug_ranges  0x0000000000000000       0xb8 /usr/local/xenon/usr/lib/libxenon.a(tcp_in.o)
 .debug_line    0x0000000000000000      0x780 /usr/local/xenon/usr/lib/libxenon.a(tcp_in.o)
 .debug_str     0x0000000000000000      0xe61 /usr/local/xenon/usr/lib/libxenon.a(tcp_in.o)
 .comment       0x0000000000000000       0x12 /usr/local/xenon/usr/lib/libxenon.a(tcp_in.o)
 .note.GNU-stack
                0x0000000000000000        0x0 /usr/local/xenon/usr/lib/libxenon.a(tcp_in.o)
 .debug_frame   0x0000000000000000      0x120 /usr/local/xenon/usr/lib/libxenon.a(tcp_in.o)
 .sbss          0x0000000000000000        0x4 /usr/local/xenon/usr/lib/libxenon.a(tcp_in.o)
 .text          0x0000000000000000        0x0 /usr/local/xenon/usr/lib/libxenon.a(inet_chksum.o)
 .data          0x0000000000000000        0x0 /usr/local/xenon/usr/lib/libxenon.a(inet_chksum.o)
 .bss           0x0000000000000000        0x0 /usr/local/xenon/usr/lib/libxenon.a(inet_chksum.o)
 .text.lwip_standard_chksum
                0x0000000000000000       0xc0 /usr/local/xenon/usr/lib/libxenon.a(inet_chksum.o)
 .text.inet_chksum_pseudo
                0x0000000000000000       0xe8 /usr/local/xenon/usr/lib/libxenon.a(inet_chksum.o)
 .text.inet_chksum_pseudo_partial
                0x0000000000000000      0x140 /usr/local/xenon/usr/lib/libxenon.a(inet_chksum.o)
 .text.inet_chksum
                0x0000000000000000       0x28 /usr/local/xenon/usr/lib/libxenon.a(inet_chksum.o)
 .text.inet_chksum_pbuf
                0x0000000000000000       0x90 /usr/local/xenon/usr/lib/libxenon.a(inet_chksum.o)
 .rodata.inet_chksum_pseudo_partial.str1.1
                0x0000000000000000       0x3b /usr/local/xenon/usr/lib/libxenon.a(inet_chksum.o)
 .debug_info    0x0000000000000000      0xc73 /usr/local/xenon/usr/lib/libxenon.a(inet_chksum.o)
 .debug_abbrev  0x0000000000000000      0x284 /usr/local/xenon/usr/lib/libxenon.a(inet_chksum.o)
 .debug_loc     0x0000000000000000      0x65b /usr/local/xenon/usr/lib/libxenon.a(inet_chksum.o)
 .debug_aranges
                0x0000000000000000       0x40 /usr/local/xenon/usr/lib/libxenon.a(inet_chksum.o)
 .debug_ranges  0x0000000000000000       0x30 /usr/local/xenon/usr/lib/libxenon.a(inet_chksum.o)
 .debug_line    0x0000000000000000      0x29e /usr/local/xenon/usr/lib/libxenon.a(inet_chksum.o)
 .debug_str     0x0000000000000000      0x69c /usr/local/xenon/usr/lib/libxenon.a(inet_chksum.o)
 .comment       0x0000000000000000       0x12 /usr/local/xenon/usr/lib/libxenon.a(inet_chksum.o)
 .note.GNU-stack
                0x0000000000000000        0x0 /usr/local/xenon/usr/lib/libxenon.a(inet_chksum.o)
 .debug_frame   0x0000000000000000       0xe0 /usr/local/xenon/usr/lib/libxenon.a(inet_chksum.o)
 .text          0x0000000000000000        0x0 /usr/local/xenon/usr/lib/libxenon.a(memp.o)
 .data          0x0000000000000000        0x0 /usr/local/xenon/usr/lib/libxenon.a(memp.o)
 .bss           0x0000000000000000        0x0 /usr/local/xenon/usr/lib/libxenon.a(memp.o)
 .text.memp_init
                0x0000000000000000       0xb0 /usr/local/xenon/usr/lib/libxenon.a(memp.o)
 .text.memp_malloc
                0x0000000000000000       0xd4 /usr/local/xenon/usr/lib/libxenon.a(memp.o)
 .text.memp_free
                0x0000000000000000       0x78 /usr/local/xenon/usr/lib/libxenon.a(memp.o)
 .bss.memp_memory
                0x0000000000000000    0xc741b /usr/local/xenon/usr/lib/libxenon.a(memp.o)
 .bss.memp_tab  0x0000000000000000       0x28 /usr/local/xenon/usr/lib/libxenon.a(memp.o)
 .rodata.memp_malloc.str1.1
                0x0000000000000000       0x2f /usr/local/xenon/usr/lib/libxenon.a(memp.o)
 .rodata.memp_num
                0x0000000000000000       0x14 /usr/local/xenon/usr/lib/libxenon.a(memp.o)
 .rodata.memp_sizes
                0x0000000000000000       0x14 /usr/local/xenon/usr/lib/libxenon.a(memp.o)
 .debug_info    0x0000000000000000     0x1699 /usr/local/xenon/usr/lib/libxenon.a(memp.o)
 .debug_abbrev  0x0000000000000000      0x2ab /usr/local/xenon/usr/lib/libxenon.a(memp.o)
 .debug_loc     0x0000000000000000      0x129 /usr/local/xenon/usr/lib/libxenon.a(memp.o)
 .debug_aranges
                0x0000000000000000       0x30 /usr/local/xenon/usr/lib/libxenon.a(memp.o)
 .debug_ranges  0x0000000000000000       0x20 /usr/local/xenon/usr/lib/libxenon.a(memp.o)
 .debug_line    0x0000000000000000      0x2e6 /usr/local/xenon/usr/lib/libxenon.a(memp.o)
 .debug_str     0x0000000000000000      0xc59 /usr/local/xenon/usr/lib/libxenon.a(memp.o)
 .comment       0x0000000000000000       0x12 /usr/local/xenon/usr/lib/libxenon.a(memp.o)
 .note.GNU-stack
                0x0000000000000000        0x0 /usr/local/xenon/usr/lib/libxenon.a(memp.o)
 .debug_frame   0x0000000000000000       0x5c /usr/local/xenon/usr/lib/libxenon.a(memp.o)
 .text          0x0000000000000000        0x0 /usr/local/xenon/usr/lib/libxenon.a(netif.o)
 .data          0x0000000000000000        0x0 /usr/local/xenon/usr/lib/libxenon.a(netif.o)
 .bss           0x0000000000000000        0x0 /usr/local/xenon/usr/lib/libxenon.a(netif.o)
 .text.netif_init
                0x0000000000000000        0x4 /usr/local/xenon/usr/lib/libxenon.a(netif.o)
 .text.netif_find
                0x0000000000000000       0x64 /usr/local/xenon/usr/lib/libxenon.a(netif.o)
 .text.netif_set_ipaddr
                0x0000000000000000       0xac /usr/local/xenon/usr/lib/libxenon.a(netif.o)
 .text.netif_set_addr
                0x0000000000000000       0x54 /usr/local/xenon/usr/lib/libxenon.a(netif.o)
 .text.netif_add
                0x0000000000000000       0xb0 /usr/local/xenon/usr/lib/libxenon.a(netif.o)
 .text.netif_set_gw
                0x0000000000000000       0x18 /usr/local/xenon/usr/lib/libxenon.a(netif.o)
 .text.netif_set_netmask
                0x0000000000000000       0x18 /usr/local/xenon/usr/lib/libxenon.a(netif.o)
 .text.netif_set_default
                0x0000000000000000        0xc /usr/local/xenon/usr/lib/libxenon.a(netif.o)
 .text.netif_set_up
                0x0000000000000000       0x28 /usr/local/xenon/usr/lib/libxenon.a(netif.o)
 .text.netif_set_down
                0x0000000000000000       0x20 /usr/local/xenon/usr/lib/libxenon.a(netif.o)
 .text.netif_remove
                0x0000000000000000       0x88 /usr/local/xenon/usr/lib/libxenon.a(netif.o)
 .text.netif_set_link_up
                0x0000000000000000       0x6c /usr/local/xenon/usr/lib/libxenon.a(netif.o)
 .text.netif_set_link_down
                0x0000000000000000       0x18 /usr/local/xenon/usr/lib/libxenon.a(netif.o)
 .bss.netif_num
                0x0000000000000000        0x1 /usr/local/xenon/usr/lib/libxenon.a(netif.o)
 .rodata.netif_add.str1.1
                0x0000000000000000       0x30 /usr/local/xenon/usr/lib/libxenon.a(netif.o)
 .debug_info    0x0000000000000000     0x1b9c /usr/local/xenon/usr/lib/libxenon.a(netif.o)
 .debug_abbrev  0x0000000000000000      0x3c9 /usr/local/xenon/usr/lib/libxenon.a(netif.o)
 .debug_loc     0x0000000000000000      0x457 /usr/local/xenon/usr/lib/libxenon.a(netif.o)
 .debug_aranges
                0x0000000000000000       0x80 /usr/local/xenon/usr/lib/libxenon.a(netif.o)
 .debug_ranges  0x0000000000000000       0xa8 /usr/local/xenon/usr/lib/libxenon.a(netif.o)
 .debug_line    0x0000000000000000      0x3e8 /usr/local/xenon/usr/lib/libxenon.a(netif.o)
 .debug_str     0x0000000000000000      0xe60 /usr/local/xenon/usr/lib/libxenon.a(netif.o)
 .comment       0x0000000000000000       0x12 /usr/local/xenon/usr/lib/libxenon.a(netif.o)
 .note.GNU-stack
                0x0000000000000000        0x0 /usr/local/xenon/usr/lib/libxenon.a(netif.o)
 .debug_frame   0x0000000000000000      0x150 /usr/local/xenon/usr/lib/libxenon.a(netif.o)
 .sbss          0x0000000000000000        0x8 /usr/local/xenon/usr/lib/libxenon.a(netif.o)
 .text          0x0000000000000000        0x0 /usr/local/xenon/usr/lib/libxenon.a(ip_addr.o)
 .data          0x0000000000000000        0x0 /usr/local/xenon/usr/lib/libxenon.a(ip_addr.o)
 .bss           0x0000000000000000        0x0 /usr/local/xenon/usr/lib/libxenon.a(ip_addr.o)
 .text.ip4_addr_isbroadcast
                0x0000000000000000       0x58 /usr/local/xenon/usr/lib/libxenon.a(ip_addr.o)
 .text.ip4_addr_netmask_valid
                0x0000000000000000       0x44 /usr/local/xenon/usr/lib/libxenon.a(ip_addr.o)
 .text.ipaddr_aton
                0x0000000000000000      0x200 /usr/local/xenon/usr/lib/libxenon.a(ip_addr.o)
 .rodata.ipaddr_aton
                0x0000000000000000       0x14 /usr/local/xenon/usr/lib/libxenon.a(ip_addr.o)
 .text.ipaddr_addr
                0x0000000000000000       0x38 /usr/local/xenon/usr/lib/libxenon.a(ip_addr.o)
 .text.ipaddr_ntoa_r
                0x0000000000000000       0xec /usr/local/xenon/usr/lib/libxenon.a(ip_addr.o)
 .text.ipaddr_ntoa
                0x0000000000000000       0x10 /usr/local/xenon/usr/lib/libxenon.a(ip_addr.o)
 .bss.str.3744  0x0000000000000000       0x10 /usr/local/xenon/usr/lib/libxenon.a(ip_addr.o)
 .rodata.ipaddr_aton.str1.1
                0x0000000000000000       0x37 /usr/local/xenon/usr/lib/libxenon.a(ip_addr.o)
 .sdata.ip_addr_any
                0x0000000000000000        0x4 /usr/local/xenon/usr/lib/libxenon.a(ip_addr.o)
 .sdata.ip_addr_broadcast
                0x0000000000000000        0x4 /usr/local/xenon/usr/lib/libxenon.a(ip_addr.o)
 .debug_info    0x0000000000000000      0xe11 /usr/local/xenon/usr/lib/libxenon.a(ip_addr.o)
 .debug_abbrev  0x0000000000000000      0x2d4 /usr/local/xenon/usr/lib/libxenon.a(ip_addr.o)
 .debug_loc     0x0000000000000000      0x5b7 /usr/local/xenon/usr/lib/libxenon.a(ip_addr.o)
 .debug_aranges
                0x0000000000000000       0x48 /usr/local/xenon/usr/lib/libxenon.a(ip_addr.o)
 .debug_ranges  0x0000000000000000       0x38 /usr/local/xenon/usr/lib/libxenon.a(ip_addr.o)
 .debug_line    0x0000000000000000      0x2f4 /usr/local/xenon/usr/lib/libxenon.a(ip_addr.o)
 .debug_str     0x0000000000000000      0x729 /usr/local/xenon/usr/lib/libxenon.a(ip_addr.o)
 .comment       0x0000000000000000       0x12 /usr/local/xenon/usr/lib/libxenon.a(ip_addr.o)
 .note.GNU-stack
                0x0000000000000000        0x0 /usr/local/xenon/usr/lib/libxenon.a(ip_addr.o)
 .debug_frame   0x0000000000000000       0xa8 /usr/local/xenon/usr/lib/libxenon.a(ip_addr.o)
 .text          0x0000000000000000        0x0 /usr/local/xenon/usr/lib/libxenon.a(icmp.o)
 .data          0x0000000000000000        0x0 /usr/local/xenon/usr/lib/libxenon.a(icmp.o)
 .bss           0x0000000000000000        0x0 /usr/local/xenon/usr/lib/libxenon.a(icmp.o)
 .text.icmp_send_response.isra.0
                0x0000000000000000       0xe8 /usr/local/xenon/usr/lib/libxenon.a(icmp.o)
 .text.icmp_input
                0x0000000000000000      0x364 /usr/local/xenon/usr/lib/libxenon.a(icmp.o)
 .text.icmp_dest_unreach
                0x0000000000000000       0x10 /usr/local/xenon/usr/lib/libxenon.a(icmp.o)
 .text.icmp_time_exceeded
                0x0000000000000000       0x10 /usr/local/xenon/usr/lib/libxenon.a(icmp.o)
 .rodata.icmp_send_response.isra.0.str1.1
                0x0000000000000000       0x34 /usr/local/xenon/usr/lib/libxenon.a(icmp.o)
 .debug_info    0x0000000000000000     0x140c /usr/local/xenon/usr/lib/libxenon.a(icmp.o)
 .debug_abbrev  0x0000000000000000      0x32a /usr/local/xenon/usr/lib/libxenon.a(icmp.o)
 .debug_loc     0x0000000000000000      0x30c /usr/local/xenon/usr/lib/libxenon.a(icmp.o)
 .debug_aranges
                0x0000000000000000       0x38 /usr/local/xenon/usr/lib/libxenon.a(icmp.o)
 .debug_ranges  0x0000000000000000       0x28 /usr/local/xenon/usr/lib/libxenon.a(icmp.o)
 .debug_line    0x0000000000000000      0x2cc /usr/local/xenon/usr/lib/libxenon.a(icmp.o)
 .debug_str     0x0000000000000000      0x9a7 /usr/local/xenon/usr/lib/libxenon.a(icmp.o)
 .comment       0x0000000000000000       0x12 /usr/local/xenon/usr/lib/libxenon.a(icmp.o)
 .note.GNU-stack
                0x0000000000000000        0x0 /usr/local/xenon/usr/lib/libxenon.a(icmp.o)
 .debug_frame   0x0000000000000000       0xa8 /usr/local/xenon/usr/lib/libxenon.a(icmp.o)
 .data          0x0000000000000000        0x0 /usr/local/xenon/lib/gcc/xenon/6.3.0/32/libgcc.a(crtsavgpr.o)
 .bss           0x0000000000000000        0x0 /usr/local/xenon/lib/gcc/xenon/6.3.0/32/libgcc.a(crtsavgpr.o)
 .data          0x0000000000000000        0x0 /usr/local/xenon/lib/gcc/xenon/6.3.0/32/libgcc.a(crtresxgpr.o)
 .bss           0x0000000000000000        0x0 /usr/local/xenon/lib/gcc/xenon/6.3.0/32/libgcc.a(crtresxgpr.o)
 .data          0x0000000000000000        0x0 /usr/local/xenon/lib/gcc/xenon/6.3.0/32/libgcc.a(unwind-dw2-fde-dip.o)
 .data          0x0000000000000000        0x0 /usr/local/xenon/xenon/lib/32/libc.a(lib_a-assert.o)
 .bss           0x0000000000000000        0x0 /usr/local/xenon/xenon/lib/32/libc.a(lib_a-assert.o)
 .text          0x0000000000000000        0xc /usr/local/xenon/xenon/lib/32/libc.a(lib_a-errno.o)
 .data          0x0000000000000000        0x0 /usr/local/xenon/xenon/lib/32/libc.a(lib_a-errno.o)
 .bss           0x0000000000000000        0x0 /usr/local/xenon/xenon/lib/32/libc.a(lib_a-errno.o)
 .debug_info    0x0000000000000000      0x8d7 /usr/local/xenon/xenon/lib/32/libc.a(lib_a-errno.o)
 .debug_abbrev  0x0000000000000000      0x1ae /usr/local/xenon/xenon/lib/32/libc.a(lib_a-errno.o)
 .debug_aranges
                0x0000000000000000       0x20 /usr/local/xenon/xenon/lib/32/libc.a(lib_a-errno.o)
 .debug_line    0x0000000000000000      0x10c /usr/local/xenon/xenon/lib/32/libc.a(lib_a-errno.o)
 .debug_str     0x0000000000000000      0x56c /usr/local/xenon/xenon/lib/32/libc.a(lib_a-errno.o)
 .comment       0x0000000000000000       0x12 /usr/local/xenon/xenon/lib/32/libc.a(lib_a-errno.o)
 .note.GNU-stack
                0x0000000000000000        0x0 /usr/local/xenon/xenon/lib/32/libc.a(lib_a-errno.o)
 .debug_frame   0x0000000000000000       0x20 /usr/local/xenon/xenon/lib/32/libc.a(lib_a-errno.o)
 .data          0x0000000000000000        0x0 /usr/local/xenon/xenon/lib/32/libc.a(lib_a-exit.o)
 .bss           0x0000000000000000        0x0 /usr/local/xenon/xenon/lib/32/libc.a(lib_a-exit.o)
 .data          0x0000000000000000        0x0 /usr/local/xenon/xenon/lib/32/libc.a(lib_a-fclose.o)
 .bss           0x0000000000000000        0x0 /usr/local/xenon/xenon/lib/32/libc.a(lib_a-fclose.o)
 .data          0x0000000000000000        0x0 /usr/local/xenon/xenon/lib/32/libc.a(lib_a-fflush.o)
 .bss           0x0000000000000000        0x0 /usr/local/xenon/xenon/lib/32/libc.a(lib_a-fflush.o)
 .data          0x0000000000000000        0x0 /usr/local/xenon/xenon/lib/32/libc.a(lib_a-findfp.o)
 .bss           0x0000000000000000        0x0 /usr/local/xenon/xenon/lib/32/libc.a(lib_a-findfp.o)
 .data          0x0000000000000000        0x0 /usr/local/xenon/xenon/lib/32/libc.a(lib_a-fiprintf.o)
 .bss           0x0000000000000000        0x0 /usr/local/xenon/xenon/lib/32/libc.a(lib_a-fiprintf.o)
 .text          0x0000000000000000      0x164 /usr/local/xenon/xenon/lib/32/libc.a(lib_a-fopen.o)
 .data          0x0000000000000000        0x0 /usr/local/xenon/xenon/lib/32/libc.a(lib_a-fopen.o)
 .bss           0x0000000000000000        0x0 /usr/local/xenon/xenon/lib/32/libc.a(lib_a-fopen.o)
 .debug_info    0x0000000000000000      0xc4e /usr/local/xenon/xenon/lib/32/libc.a(lib_a-fopen.o)
 .debug_abbrev  0x0000000000000000      0x29e /usr/local/xenon/xenon/lib/32/libc.a(lib_a-fopen.o)
 .debug_loc     0x0000000000000000      0x1e7 /usr/local/xenon/xenon/lib/32/libc.a(lib_a-fopen.o)
 .debug_aranges
                0x0000000000000000       0x20 /usr/local/xenon/xenon/lib/32/libc.a(lib_a-fopen.o)
 .debug_line    0x0000000000000000      0x1ae /usr/local/xenon/xenon/lib/32/libc.a(lib_a-fopen.o)
 .debug_str     0x0000000000000000      0x710 /usr/local/xenon/xenon/lib/32/libc.a(lib_a-fopen.o)
 .comment       0x0000000000000000       0x12 /usr/local/xenon/xenon/lib/32/libc.a(lib_a-fopen.o)
 .note.GNU-stack
                0x0000000000000000        0x0 /usr/local/xenon/xenon/lib/32/libc.a(lib_a-fopen.o)
 .debug_frame   0x0000000000000000       0x68 /usr/local/xenon/xenon/lib/32/libc.a(lib_a-fopen.o)
 .text          0x0000000000000000      0x33c /usr/local/xenon/xenon/lib/32/libc.a(lib_a-fread.o)
 .data          0x0000000000000000        0x0 /usr/local/xenon/xenon/lib/32/libc.a(lib_a-fread.o)
 .bss           0x0000000000000000        0x0 /usr/local/xenon/xenon/lib/32/libc.a(lib_a-fread.o)
 .debug_info    0x0000000000000000      0xcd4 /usr/local/xenon/xenon/lib/32/libc.a(lib_a-fread.o)
 .debug_abbrev  0x0000000000000000      0x2be /usr/local/xenon/xenon/lib/32/libc.a(lib_a-fread.o)
 .debug_loc     0x0000000000000000      0x5a2 /usr/local/xenon/xenon/lib/32/libc.a(lib_a-fread.o)
 .debug_aranges
                0x0000000000000000       0x20 /usr/local/xenon/xenon/lib/32/libc.a(lib_a-fread.o)
 .debug_ranges  0x0000000000000000       0x50 /usr/local/xenon/xenon/lib/32/libc.a(lib_a-fread.o)
 .debug_line    0x0000000000000000      0x23d /usr/local/xenon/xenon/lib/32/libc.a(lib_a-fread.o)
 .debug_str     0x0000000000000000      0x70f /usr/local/xenon/xenon/lib/32/libc.a(lib_a-fread.o)
 .comment       0x0000000000000000       0x12 /usr/local/xenon/xenon/lib/32/libc.a(lib_a-fread.o)
 .note.GNU-stack
                0x0000000000000000        0x0 /usr/local/xenon/xenon/lib/32/libc.a(lib_a-fread.o)
 .debug_frame   0x0000000000000000       0x90 /usr/local/xenon/xenon/lib/32/libc.a(lib_a-fread.o)
 .data          0x0000000000000000        0x0 /usr/local/xenon/xenon/lib/32/libc.a(lib_a-freer.o)
 .bss           0x0000000000000000        0x0 /usr/local/xenon/xenon/lib/32/libc.a(lib_a-freer.o)
 .text          0x0000000000000000       0x20 /usr/local/xenon/xenon/lib/32/libc.a(lib_a-fseek.o)
 .data          0x0000000000000000        0x0 /usr/local/xenon/xenon/lib/32/libc.a(lib_a-fseek.o)
 .bss           0x0000000000000000        0x0 /usr/local/xenon/xenon/lib/32/libc.a(lib_a-fseek.o)
 .debug_info    0x0000000000000000      0xbe8 /usr/local/xenon/xenon/lib/32/libc.a(lib_a-fseek.o)
 .debug_abbrev  0x0000000000000000      0x27a /usr/local/xenon/xenon/lib/32/libc.a(lib_a-fseek.o)
 .debug_loc     0x0000000000000000      0x18c /usr/local/xenon/xenon/lib/32/libc.a(lib_a-fseek.o)
 .debug_aranges
                0x0000000000000000       0x20 /usr/local/xenon/xenon/lib/32/libc.a(lib_a-fseek.o)
 .debug_ranges  0x0000000000000000       0x18 /usr/local/xenon/xenon/lib/32/libc.a(lib_a-fseek.o)
 .debug_line    0x0000000000000000      0x180 /usr/local/xenon/xenon/lib/32/libc.a(lib_a-fseek.o)
 .debug_str     0x0000000000000000      0x6cb /usr/local/xenon/xenon/lib/32/libc.a(lib_a-fseek.o)
 .comment       0x0000000000000000       0x12 /usr/local/xenon/xenon/lib/32/libc.a(lib_a-fseek.o)
 .note.GNU-stack
                0x0000000000000000        0x0 /usr/local/xenon/xenon/lib/32/libc.a(lib_a-fseek.o)
 .debug_frame   0x0000000000000000       0x30 /usr/local/xenon/xenon/lib/32/libc.a(lib_a-fseek.o)
 .text          0x0000000000000000      0x588 /usr/local/xenon/xenon/lib/32/libc.a(lib_a-fseeko.o)
 .data          0x0000000000000000        0x0 /usr/local/xenon/xenon/lib/32/libc.a(lib_a-fseeko.o)
 .bss           0x0000000000000000        0x0 /usr/local/xenon/xenon/lib/32/libc.a(lib_a-fseeko.o)
 .debug_info    0x0000000000000000     0x101e /usr/local/xenon/xenon/lib/32/libc.a(lib_a-fseeko.o)
 .debug_abbrev  0x0000000000000000      0x2e3 /usr/local/xenon/xenon/lib/32/libc.a(lib_a-fseeko.o)
 .debug_loc     0x0000000000000000      0x475 /usr/local/xenon/xenon/lib/32/libc.a(lib_a-fseeko.o)
 .debug_aranges
                0x0000000000000000       0x20 /usr/local/xenon/xenon/lib/32/libc.a(lib_a-fseeko.o)
 .debug_ranges  0x0000000000000000       0x28 /usr/local/xenon/xenon/lib/32/libc.a(lib_a-fseeko.o)
 .debug_line    0x0000000000000000      0x34c /usr/local/xenon/xenon/lib/32/libc.a(lib_a-fseeko.o)
 .debug_str     0x0000000000000000      0x89a /usr/local/xenon/xenon/lib/32/libc.a(lib_a-fseeko.o)
 .comment       0x0000000000000000       0x12 /usr/local/xenon/xenon/lib/32/libc.a(lib_a-fseeko.o)
 .note.GNU-stack
                0x0000000000000000        0x0 /usr/local/xenon/xenon/lib/32/libc.a(lib_a-fseeko.o)
 .debug_frame   0x0000000000000000       0x70 /usr/local/xenon/xenon/lib/32/libc.a(lib_a-fseeko.o)
 .data          0x0000000000000000        0x0 /usr/local/xenon/xenon/lib/32/libc.a(lib_a-fstatr.o)
 .bss           0x0000000000000000        0x0 /usr/local/xenon/xenon/lib/32/libc.a(lib_a-fstatr.o)
 .text          0x0000000000000000       0x18 /usr/local/xenon/xenon/lib/32/libc.a(lib_a-ftell.o)
 .data          0x0000000000000000        0x0 /usr/local/xenon/xenon/lib/32/libc.a(lib_a-ftell.o)
 .bss           0x0000000000000000        0x0 /usr/local/xenon/xenon/lib/32/libc.a(lib_a-ftell.o)
 .debug_info    0x0000000000000000      0xb8f /usr/local/xenon/xenon/lib/32/libc.a(lib_a-ftell.o)
 .debug_abbrev  0x0000000000000000      0x279 /usr/local/xenon/xenon/lib/32/libc.a(lib_a-ftell.o)
 .debug_loc     0x0000000000000000       0x9a /usr/local/xenon/xenon/lib/32/libc.a(lib_a-ftell.o)
 .debug_aranges
                0x0000000000000000       0x20 /usr/local/xenon/xenon/lib/32/libc.a(lib_a-ftell.o)
 .debug_ranges  0x0000000000000000       0x18 /usr/local/xenon/xenon/lib/32/libc.a(lib_a-ftell.o)
 .debug_line    0x0000000000000000      0x184 /usr/local/xenon/xenon/lib/32/libc.a(lib_a-ftell.o)
 .debug_str     0x0000000000000000      0x6bd /usr/local/xenon/xenon/lib/32/libc.a(lib_a-ftell.o)
 .comment       0x0000000000000000       0x12 /usr/local/xenon/xenon/lib/32/libc.a(lib_a-ftell.o)
 .note.GNU-stack
                0x0000000000000000        0x0 /usr/local/xenon/xenon/lib/32/libc.a(lib_a-ftell.o)
 .debug_frame   0x0000000000000000       0x30 /usr/local/xenon/xenon/lib/32/libc.a(lib_a-ftell.o)
 .text          0x0000000000000000      0x150 /usr/local/xenon/xenon/lib/32/libc.a(lib_a-ftello.o)
 .data          0x0000000000000000        0x0 /usr/local/xenon/xenon/lib/32/libc.a(lib_a-ftello.o)
 .bss           0x0000000000000000        0x0 /usr/local/xenon/xenon/lib/32/libc.a(lib_a-ftello.o)
 .debug_info    0x0000000000000000      0xb96 /usr/local/xenon/xenon/lib/32/libc.a(lib_a-ftello.o)
 .debug_abbrev  0x0000000000000000      0x264 /usr/local/xenon/xenon/lib/32/libc.a(lib_a-ftello.o)
 .debug_loc     0x0000000000000000      0x187 /usr/local/xenon/xenon/lib/32/libc.a(lib_a-ftello.o)
 .debug_aranges
                0x0000000000000000       0x20 /usr/local/xenon/xenon/lib/32/libc.a(lib_a-ftello.o)
 .debug_ranges  0x0000000000000000       0x28 /usr/local/xenon/xenon/lib/32/libc.a(lib_a-ftello.o)
 .debug_line    0x0000000000000000      0x1bc /usr/local/xenon/xenon/lib/32/libc.a(lib_a-ftello.o)
 .debug_str     0x0000000000000000      0x6d8 /usr/local/xenon/xenon/lib/32/libc.a(lib_a-ftello.o)
 .comment       0x0000000000000000       0x12 /usr/local/xenon/xenon/lib/32/libc.a(lib_a-ftello.o)
 .note.GNU-stack
                0x0000000000000000        0x0 /usr/local/xenon/xenon/lib/32/libc.a(lib_a-ftello.o)
 .debug_frame   0x0000000000000000       0x58 /usr/local/xenon/xenon/lib/32/libc.a(lib_a-ftello.o)
 .data          0x0000000000000000        0x0 /usr/local/xenon/xenon/lib/32/libc.a(lib_a-fwalk.o)
 .bss           0x0000000000000000        0x0 /usr/local/xenon/xenon/lib/32/libc.a(lib_a-fwalk.o)
 .text          0x0000000000000000        0x0 /usr/local/xenon/xenon/lib/32/libc.a(lib_a-impure.o)
 .bss           0x0000000000000000        0x0 /usr/local/xenon/xenon/lib/32/libc.a(lib_a-impure.o)
 .bss           0x0000000000000000        0x0 /usr/local/xenon/xenon/lib/32/libc.a(lib_a-locale.o)
 .sbss          0x0000000000000000        0x4 /usr/local/xenon/xenon/lib/32/libc.a(lib_a-locale.o)
 .data          0x0000000000000000        0x0 /usr/local/xenon/xenon/lib/32/libc.a(lib_a-makebuf.o)
 .bss           0x0000000000000000        0x0 /usr/local/xenon/xenon/lib/32/libc.a(lib_a-makebuf.o)
 .text          0x0000000000000000       0x14 /usr/local/xenon/xenon/lib/32/libc.a(lib_a-malign.o)
 .data          0x0000000000000000        0x0 /usr/local/xenon/xenon/lib/32/libc.a(lib_a-malign.o)
 .bss           0x0000000000000000        0x0 /usr/local/xenon/xenon/lib/32/libc.a(lib_a-malign.o)
 .debug_info    0x0000000000000000      0x902 /usr/local/xenon/xenon/lib/32/libc.a(lib_a-malign.o)
 .debug_abbrev  0x0000000000000000      0x1e5 /usr/local/xenon/xenon/lib/32/libc.a(lib_a-malign.o)
 .debug_loc     0x0000000000000000       0x58 /usr/local/xenon/xenon/lib/32/libc.a(lib_a-malign.o)
 .debug_aranges
                0x0000000000000000       0x20 /usr/local/xenon/xenon/lib/32/libc.a(lib_a-malign.o)
 .debug_line    0x0000000000000000      0x155 /usr/local/xenon/xenon/lib/32/libc.a(lib_a-malign.o)
 .debug_str     0x0000000000000000      0x583 /usr/local/xenon/xenon/lib/32/libc.a(lib_a-malign.o)
 .comment       0x0000000000000000       0x12 /usr/local/xenon/xenon/lib/32/libc.a(lib_a-malign.o)
 .note.GNU-stack
                0x0000000000000000        0x0 /usr/local/xenon/xenon/lib/32/libc.a(lib_a-malign.o)
 .debug_frame   0x0000000000000000       0x20 /usr/local/xenon/xenon/lib/32/libc.a(lib_a-malign.o)
 .text          0x0000000000000000      0x1d8 /usr/local/xenon/xenon/lib/32/libc.a(lib_a-malignr.o)
 .data          0x0000000000000000        0x0 /usr/local/xenon/xenon/lib/32/libc.a(lib_a-malignr.o)
 .bss           0x0000000000000000        0x0 /usr/local/xenon/xenon/lib/32/libc.a(lib_a-malignr.o)
 .debug_info    0x0000000000000000      0xbee /usr/local/xenon/xenon/lib/32/libc.a(lib_a-malignr.o)
 .debug_abbrev  0x0000000000000000      0x23a /usr/local/xenon/xenon/lib/32/libc.a(lib_a-malignr.o)
 .debug_loc     0x0000000000000000      0x25f /usr/local/xenon/xenon/lib/32/libc.a(lib_a-malignr.o)
 .debug_aranges
                0x0000000000000000       0x20 /usr/local/xenon/xenon/lib/32/libc.a(lib_a-malignr.o)
 .debug_line    0x0000000000000000      0x194 /usr/local/xenon/xenon/lib/32/libc.a(lib_a-malignr.o)
 .debug_str     0x0000000000000000      0x737 /usr/local/xenon/xenon/lib/32/libc.a(lib_a-malignr.o)
 .comment       0x0000000000000000       0x12 /usr/local/xenon/xenon/lib/32/libc.a(lib_a-malignr.o)
 .note.GNU-stack
                0x0000000000000000        0x0 /usr/local/xenon/xenon/lib/32/libc.a(lib_a-malignr.o)
 .debug_frame   0x0000000000000000       0x68 /usr/local/xenon/xenon/lib/32/libc.a(lib_a-malignr.o)
 .data          0x0000000000000000        0x0 /usr/local/xenon/xenon/lib/32/libc.a(lib_a-malloc.o)
 .bss           0x0000000000000000        0x0 /usr/local/xenon/xenon/lib/32/libc.a(lib_a-malloc.o)
 .data          0x0000000000000000        0x0 /usr/local/xenon/xenon/lib/32/libc.a(lib_a-mbtowc_r.o)
 .bss           0x0000000000000000        0x0 /usr/local/xenon/xenon/lib/32/libc.a(lib_a-mbtowc_r.o)
 .data          0x0000000000000000        0x0 /usr/local/xenon/xenon/lib/32/libc.a(lib_a-memcmp.o)
 .bss           0x0000000000000000        0x0 /usr/local/xenon/xenon/lib/32/libc.a(lib_a-memcmp.o)
 .data          0x0000000000000000        0x0 /usr/local/xenon/xenon/lib/32/libc.a(lib_a-memcpy.o)
 .bss           0x0000000000000000        0x0 /usr/local/xenon/xenon/lib/32/libc.a(lib_a-memcpy.o)
 .data          0x0000000000000000        0x0 /usr/local/xenon/xenon/lib/32/libc.a(lib_a-memset.o)
 .bss           0x0000000000000000        0x0 /usr/local/xenon/xenon/lib/32/libc.a(lib_a-memset.o)
 .text          0x0000000000000000       0x88 /usr/local/xenon/xenon/lib/32/libc.a(lib_a-openr.o)
 .data          0x0000000000000000        0x0 /usr/local/xenon/xenon/lib/32/libc.a(lib_a-openr.o)
 .bss           0x0000000000000000        0x0 /usr/local/xenon/xenon/lib/32/libc.a(lib_a-openr.o)
 .debug_info    0x0000000000000000      0x9a2 /usr/local/xenon/xenon/lib/32/libc.a(lib_a-openr.o)
 .debug_abbrev  0x0000000000000000      0x200 /usr/local/xenon/xenon/lib/32/libc.a(lib_a-openr.o)
 .debug_loc     0x0000000000000000       0xc9 /usr/local/xenon/xenon/lib/32/libc.a(lib_a-openr.o)
 .debug_aranges
                0x0000000000000000       0x20 /usr/local/xenon/xenon/lib/32/libc.a(lib_a-openr.o)
 .debug_line    0x0000000000000000      0x17e /usr/local/xenon/xenon/lib/32/libc.a(lib_a-openr.o)
 .debug_str     0x0000000000000000      0x5b9 /usr/local/xenon/xenon/lib/32/libc.a(lib_a-openr.o)
 .comment       0x0000000000000000       0x12 /usr/local/xenon/xenon/lib/32/libc.a(lib_a-openr.o)
 .note.GNU-stack
                0x0000000000000000        0x0 /usr/local/xenon/xenon/lib/32/libc.a(lib_a-openr.o)
 .debug_frame   0x0000000000000000       0x40 /usr/local/xenon/xenon/lib/32/libc.a(lib_a-openr.o)
 .data          0x0000000000000000        0x0 /usr/local/xenon/xenon/lib/32/libc.a(lib_a-printf.o)
 .bss           0x0000000000000000        0x0 /usr/local/xenon/xenon/lib/32/libc.a(lib_a-printf.o)
 .data          0x0000000000000000        0x0 /usr/local/xenon/xenon/lib/32/libc.a(lib_a-putchar.o)
 .bss           0x0000000000000000        0x0 /usr/local/xenon/xenon/lib/32/libc.a(lib_a-putchar.o)
 .data          0x0000000000000000        0x0 /usr/local/xenon/xenon/lib/32/libc.a(lib_a-puts.o)
 .bss           0x0000000000000000        0x0 /usr/local/xenon/xenon/lib/32/libc.a(lib_a-puts.o)
 .text          0x0000000000000000      0x190 /usr/local/xenon/xenon/lib/32/libc.a(lib_a-reent.o)
 .data          0x0000000000000000        0x0 /usr/local/xenon/xenon/lib/32/libc.a(lib_a-reent.o)
 .bss           0x0000000000000000        0x0 /usr/local/xenon/xenon/lib/32/libc.a(lib_a-reent.o)
 .text          0x0000000000000000      0x2c8 /usr/local/xenon/xenon/lib/32/libc.a(lib_a-refill.o)
 .data          0x0000000000000000        0x0 /usr/local/xenon/xenon/lib/32/libc.a(lib_a-refill.o)
 .bss           0x0000000000000000        0x0 /usr/local/xenon/xenon/lib/32/libc.a(lib_a-refill.o)
 .debug_info    0x0000000000000000      0xc23 /usr/local/xenon/xenon/lib/32/libc.a(lib_a-refill.o)
 .debug_abbrev  0x0000000000000000      0x287 /usr/local/xenon/xenon/lib/32/libc.a(lib_a-refill.o)
 .debug_loc     0x0000000000000000      0x1f4 /usr/local/xenon/xenon/lib/32/libc.a(lib_a-refill.o)
 .debug_aranges
                0x0000000000000000       0x20 /usr/local/xenon/xenon/lib/32/libc.a(lib_a-refill.o)
 .debug_ranges  0x0000000000000000       0x28 /usr/local/xenon/xenon/lib/32/libc.a(lib_a-refill.o)
 .debug_line    0x0000000000000000      0x21c /usr/local/xenon/xenon/lib/32/libc.a(lib_a-refill.o)
 .debug_str     0x0000000000000000      0x713 /usr/local/xenon/xenon/lib/32/libc.a(lib_a-refill.o)
 .comment       0x0000000000000000       0x12 /usr/local/xenon/xenon/lib/32/libc.a(lib_a-refill.o)
 .note.GNU-stack
                0x0000000000000000        0x0 /usr/local/xenon/xenon/lib/32/libc.a(lib_a-refill.o)
 .debug_frame   0x0000000000000000       0x78 /usr/local/xenon/xenon/lib/32/libc.a(lib_a-refill.o)
 .data          0x0000000000000000        0x0 /usr/local/xenon/xenon/lib/32/libc.a(lib_a-sbrkr.o)
 .bss           0x0000000000000000        0x0 /usr/local/xenon/xenon/lib/32/libc.a(lib_a-sbrkr.o)
 .data          0x0000000000000000        0x0 /usr/local/xenon/xenon/lib/32/libc.a(lib_a-sprintf.o)
 .bss           0x0000000000000000        0x0 /usr/local/xenon/xenon/lib/32/libc.a(lib_a-sprintf.o)
 .data          0x0000000000000000        0x0 /usr/local/xenon/xenon/lib/32/libc.a(lib_a-stdio.o)
 .bss           0x0000000000000000        0x0 /usr/local/xenon/xenon/lib/32/libc.a(lib_a-stdio.o)
 .data          0x0000000000000000        0x0 /usr/local/xenon/xenon/lib/32/libc.a(lib_a-strcat.o)
 .bss           0x0000000000000000        0x0 /usr/local/xenon/xenon/lib/32/libc.a(lib_a-strcat.o)
 .text          0x0000000000000000      0x188 /usr/local/xenon/xenon/lib/32/libc.a(lib_a-strchr.o)
 .data          0x0000000000000000        0x0 /usr/local/xenon/xenon/lib/32/libc.a(lib_a-strchr.o)
 .bss           0x0000000000000000        0x0 /usr/local/xenon/xenon/lib/32/libc.a(lib_a-strchr.o)
 .debug_info    0x0000000000000000      0x91c /usr/local/xenon/xenon/lib/32/libc.a(lib_a-strchr.o)
 .debug_abbrev  0x0000000000000000      0x1c7 /usr/local/xenon/xenon/lib/32/libc.a(lib_a-strchr.o)
 .debug_loc     0x0000000000000000      0x1c9 /usr/local/xenon/xenon/lib/32/libc.a(lib_a-strchr.o)
 .debug_aranges
                0x0000000000000000       0x20 /usr/local/xenon/xenon/lib/32/libc.a(lib_a-strchr.o)
 .debug_line    0x0000000000000000      0x180 /usr/local/xenon/xenon/lib/32/libc.a(lib_a-strchr.o)
 .debug_str     0x0000000000000000      0x569 /usr/local/xenon/xenon/lib/32/libc.a(lib_a-strchr.o)
 .comment       0x0000000000000000       0x12 /usr/local/xenon/xenon/lib/32/libc.a(lib_a-strchr.o)
 .note.GNU-stack
                0x0000000000000000        0x0 /usr/local/xenon/xenon/lib/32/libc.a(lib_a-strchr.o)
 .debug_frame   0x0000000000000000       0x20 /usr/local/xenon/xenon/lib/32/libc.a(lib_a-strchr.o)
 .data          0x0000000000000000        0x0 /usr/local/xenon/xenon/lib/32/libc.a(lib_a-strcmp.o)
 .bss           0x0000000000000000        0x0 /usr/local/xenon/xenon/lib/32/libc.a(lib_a-strcmp.o)
 .data          0x0000000000000000        0x0 /usr/local/xenon/xenon/lib/32/libc.a(lib_a-strcpy.o)
 .bss           0x0000000000000000        0x0 /usr/local/xenon/xenon/lib/32/libc.a(lib_a-strcpy.o)
 .data          0x0000000000000000        0x0 /usr/local/xenon/xenon/lib/32/libc.a(lib_a-strlen.o)
 .bss           0x0000000000000000        0x0 /usr/local/xenon/xenon/lib/32/libc.a(lib_a-strlen.o)
 .text          0x0000000000000000      0x110 /usr/local/xenon/xenon/lib/32/libc.a(lib_a-strncmp.o)
 .data          0x0000000000000000        0x0 /usr/local/xenon/xenon/lib/32/libc.a(lib_a-strncmp.o)
 .bss           0x0000000000000000        0x0 /usr/local/xenon/xenon/lib/32/libc.a(lib_a-strncmp.o)
 .debug_info    0x0000000000000000      0x901 /usr/local/xenon/xenon/lib/32/libc.a(lib_a-strncmp.o)
 .debug_abbrev  0x0000000000000000      0x1b8 /usr/local/xenon/xenon/lib/32/libc.a(lib_a-strncmp.o)
 .debug_loc     0x0000000000000000      0x117 /usr/local/xenon/xenon/lib/32/libc.a(lib_a-strncmp.o)
 .debug_aranges
                0x0000000000000000       0x20 /usr/local/xenon/xenon/lib/32/libc.a(lib_a-strncmp.o)
 .debug_line    0x0000000000000000      0x194 /usr/local/xenon/xenon/lib/32/libc.a(lib_a-strncmp.o)
 .debug_str     0x0000000000000000      0x560 /usr/local/xenon/xenon/lib/32/libc.a(lib_a-strncmp.o)
 .comment       0x0000000000000000       0x12 /usr/local/xenon/xenon/lib/32/libc.a(lib_a-strncmp.o)
 .note.GNU-stack
                0x0000000000000000        0x0 /usr/local/xenon/xenon/lib/32/libc.a(lib_a-strncmp.o)
 .debug_frame   0x0000000000000000       0x20 /usr/local/xenon/xenon/lib/32/libc.a(lib_a-strncmp.o)
 .text          0x0000000000000000       0xf8 /usr/local/xenon/xenon/lib/32/libc.a(lib_a-strncpy.o)
 .data          0x0000000000000000        0x0 /usr/local/xenon/xenon/lib/32/libc.a(lib_a-strncpy.o)
 .bss           0x0000000000000000        0x0 /usr/local/xenon/xenon/lib/32/libc.a(lib_a-strncpy.o)
 .debug_info    0x0000000000000000      0x938 /usr/local/xenon/xenon/lib/32/libc.a(lib_a-strncpy.o)
 .debug_abbrev  0x0000000000000000      0x1dd /usr/local/xenon/xenon/lib/32/libc.a(lib_a-strncpy.o)
 .debug_loc     0x0000000000000000      0x15a /usr/local/xenon/xenon/lib/32/libc.a(lib_a-strncpy.o)
 .debug_aranges
                0x0000000000000000       0x20 /usr/local/xenon/xenon/lib/32/libc.a(lib_a-strncpy.o)
 .debug_line    0x0000000000000000      0x175 /usr/local/xenon/xenon/lib/32/libc.a(lib_a-strncpy.o)
 .debug_str     0x0000000000000000      0x588 /usr/local/xenon/xenon/lib/32/libc.a(lib_a-strncpy.o)
 .comment       0x0000000000000000       0x12 /usr/local/xenon/xenon/lib/32/libc.a(lib_a-strncpy.o)
 .note.GNU-stack
                0x0000000000000000        0x0 /usr/local/xenon/xenon/lib/32/libc.a(lib_a-strncpy.o)
 .debug_frame   0x0000000000000000       0x20 /usr/local/xenon/xenon/lib/32/libc.a(lib_a-strncpy.o)
 .text          0x0000000000000000       0x44 /usr/local/xenon/xenon/lib/32/libc.a(lib_a-strnlen.o)
 .data          0x0000000000000000        0x0 /usr/local/xenon/xenon/lib/32/libc.a(lib_a-strnlen.o)
 .bss           0x0000000000000000        0x0 /usr/local/xenon/xenon/lib/32/libc.a(lib_a-strnlen.o)
 .debug_info    0x0000000000000000      0x8dd /usr/local/xenon/xenon/lib/32/libc.a(lib_a-strnlen.o)
 .debug_abbrev  0x0000000000000000      0x1b6 /usr/local/xenon/xenon/lib/32/libc.a(lib_a-strnlen.o)
 .debug_loc     0x0000000000000000       0x9e /usr/local/xenon/xenon/lib/32/libc.a(lib_a-strnlen.o)
 .debug_aranges
                0x0000000000000000       0x20 /usr/local/xenon/xenon/lib/32/libc.a(lib_a-strnlen.o)
 .debug_line    0x0000000000000000      0x152 /usr/local/xenon/xenon/lib/32/libc.a(lib_a-strnlen.o)
 .debug_str     0x0000000000000000      0x566 /usr/local/xenon/xenon/lib/32/libc.a(lib_a-strnlen.o)
 .comment       0x0000000000000000       0x12 /usr/local/xenon/xenon/lib/32/libc.a(lib_a-strnlen.o)
 .note.GNU-stack
                0x0000000000000000        0x0 /usr/local/xenon/xenon/lib/32/libc.a(lib_a-strnlen.o)
 .debug_frame   0x0000000000000000       0x20 /usr/local/xenon/xenon/lib/32/libc.a(lib_a-strnlen.o)
 .text          0x0000000000000000       0x6c /usr/local/xenon/xenon/lib/32/libc.a(lib_a-strrchr.o)
 .data          0x0000000000000000        0x0 /usr/local/xenon/xenon/lib/32/libc.a(lib_a-strrchr.o)
 .bss           0x0000000000000000        0x0 /usr/local/xenon/xenon/lib/32/libc.a(lib_a-strrchr.o)
 .debug_info    0x0000000000000000      0x8fc /usr/local/xenon/xenon/lib/32/libc.a(lib_a-strrchr.o)
 .debug_abbrev  0x0000000000000000      0x1f0 /usr/local/xenon/xenon/lib/32/libc.a(lib_a-strrchr.o)
 .debug_loc     0x0000000000000000       0xde /usr/local/xenon/xenon/lib/32/libc.a(lib_a-strrchr.o)
 .debug_aranges
                0x0000000000000000       0x20 /usr/local/xenon/xenon/lib/32/libc.a(lib_a-strrchr.o)
 .debug_line    0x0000000000000000      0x151 /usr/local/xenon/xenon/lib/32/libc.a(lib_a-strrchr.o)
 .debug_str     0x0000000000000000      0x565 /usr/local/xenon/xenon/lib/32/libc.a(lib_a-strrchr.o)
 .comment       0x0000000000000000       0x12 /usr/local/xenon/xenon/lib/32/libc.a(lib_a-strrchr.o)
 .note.GNU-stack
                0x0000000000000000        0x0 /usr/local/xenon/xenon/lib/32/libc.a(lib_a-strrchr.o)
 .debug_frame   0x0000000000000000       0x38 /usr/local/xenon/xenon/lib/32/libc.a(lib_a-strrchr.o)
 .data          0x0000000000000000        0x0 /usr/local/xenon/xenon/lib/32/libc.a(lib_a-svfprintf.o)
 .bss           0x0000000000000000        0x0 /usr/local/xenon/xenon/lib/32/libc.a(lib_a-svfprintf.o)
 .data          0x0000000000000000        0x0 /usr/local/xenon/xenon/lib/32/libc.a(lib_a-vfiprintf.o)
 .bss           0x0000000000000000        0x0 /usr/local/xenon/xenon/lib/32/libc.a(lib_a-vfiprintf.o)
 .data          0x0000000000000000        0x0 /usr/local/xenon/xenon/lib/32/libc.a(lib_a-vfprintf.o)
 .bss           0x0000000000000000        0x0 /usr/local/xenon/xenon/lib/32/libc.a(lib_a-vfprintf.o)
 .data          0x0000000000000000        0x0 /usr/local/xenon/xenon/lib/32/libc.a(lib_a-vsprintf.o)
 .bss           0x0000000000000000        0x0 /usr/local/xenon/xenon/lib/32/libc.a(lib_a-vsprintf.o)
 .data          0x0000000000000000        0x0 /usr/local/xenon/xenon/lib/32/libc.a(lib_a-wctomb_r.o)
 .bss           0x0000000000000000        0x0 /usr/local/xenon/xenon/lib/32/libc.a(lib_a-wctomb_r.o)
 .data          0x0000000000000000        0x0 /usr/local/xenon/xenon/lib/32/libc.a(lib_a-writer.o)
 .bss           0x0000000000000000        0x0 /usr/local/xenon/xenon/lib/32/libc.a(lib_a-writer.o)
 .data          0x0000000000000000        0x0 /usr/local/xenon/xenon/lib/32/libc.a(lib_a-wsetup.o)
 .bss           0x0000000000000000        0x0 /usr/local/xenon/xenon/lib/32/libc.a(lib_a-wsetup.o)
 .data          0x0000000000000000        0x0 /usr/local/xenon/xenon/lib/32/libc.a(lib_a-__call_atexit.o)
 .bss           0x0000000000000000        0x0 /usr/local/xenon/xenon/lib/32/libc.a(lib_a-__call_atexit.o)
 .data          0x0000000000000000        0x0 /usr/local/xenon/xenon/lib/32/libc.a(lib_a-closer.o)
 .bss           0x0000000000000000        0x0 /usr/local/xenon/xenon/lib/32/libc.a(lib_a-closer.o)
 .text          0x0000000000000000        0x0 /usr/local/xenon/xenon/lib/32/libc.a(lib_a-ctype_.o)
 .data          0x0000000000000000        0x0 /usr/local/xenon/xenon/lib/32/libc.a(lib_a-ctype_.o)
 .bss           0x0000000000000000        0x0 /usr/local/xenon/xenon/lib/32/libc.a(lib_a-ctype_.o)
 .data          0x0000000000000000        0x0 /usr/local/xenon/xenon/lib/32/libc.a(lib_a-dtoa.o)
 .bss           0x0000000000000000        0x0 /usr/local/xenon/xenon/lib/32/libc.a(lib_a-dtoa.o)
 .text          0x0000000000000000       0xc0 /usr/local/xenon/xenon/lib/32/libc.a(lib_a-flags.o)
 .data          0x0000000000000000        0x0 /usr/local/xenon/xenon/lib/32/libc.a(lib_a-flags.o)
 .bss           0x0000000000000000        0x0 /usr/local/xenon/xenon/lib/32/libc.a(lib_a-flags.o)
 .debug_info    0x0000000000000000      0x961 /usr/local/xenon/xenon/lib/32/libc.a(lib_a-flags.o)
 .debug_abbrev  0x0000000000000000      0x1ec /usr/local/xenon/xenon/lib/32/libc.a(lib_a-flags.o)
 .debug_loc     0x0000000000000000       0xf2 /usr/local/xenon/xenon/lib/32/libc.a(lib_a-flags.o)
 .debug_aranges
                0x0000000000000000       0x20 /usr/local/xenon/xenon/lib/32/libc.a(lib_a-flags.o)
 .debug_line    0x0000000000000000      0x17c /usr/local/xenon/xenon/lib/32/libc.a(lib_a-flags.o)
 .debug_str     0x0000000000000000      0x593 /usr/local/xenon/xenon/lib/32/libc.a(lib_a-flags.o)
 .comment       0x0000000000000000       0x12 /usr/local/xenon/xenon/lib/32/libc.a(lib_a-flags.o)
 .note.GNU-stack
                0x0000000000000000        0x0 /usr/local/xenon/xenon/lib/32/libc.a(lib_a-flags.o)
 .debug_frame   0x0000000000000000       0x20 /usr/local/xenon/xenon/lib/32/libc.a(lib_a-flags.o)
 .data          0x0000000000000000        0x0 /usr/local/xenon/xenon/lib/32/libc.a(lib_a-fputwc.o)
 .bss           0x0000000000000000        0x0 /usr/local/xenon/xenon/lib/32/libc.a(lib_a-fputwc.o)
 .data          0x0000000000000000        0x0 /usr/local/xenon/xenon/lib/32/libc.a(lib_a-fvwrite.o)
 .bss           0x0000000000000000        0x0 /usr/local/xenon/xenon/lib/32/libc.a(lib_a-fvwrite.o)
 .data          0x0000000000000000        0x0 /usr/local/xenon/xenon/lib/32/libc.a(lib_a-isattyr.o)
 .bss           0x0000000000000000        0x0 /usr/local/xenon/xenon/lib/32/libc.a(lib_a-isattyr.o)
 .data          0x0000000000000000        0x0 /usr/local/xenon/xenon/lib/32/libc.a(lib_a-localeconv.o)
 .bss           0x0000000000000000        0x0 /usr/local/xenon/xenon/lib/32/libc.a(lib_a-localeconv.o)
 .data          0x0000000000000000        0x0 /usr/local/xenon/xenon/lib/32/libc.a(lib_a-lseekr.o)
 .bss           0x0000000000000000        0x0 /usr/local/xenon/xenon/lib/32/libc.a(lib_a-lseekr.o)
 .data          0x0000000000000000        0x0 /usr/local/xenon/xenon/lib/32/libc.a(lib_a-memchr.o)
 .bss           0x0000000000000000        0x0 /usr/local/xenon/xenon/lib/32/libc.a(lib_a-memchr.o)
 .data          0x0000000000000000        0x0 /usr/local/xenon/xenon/lib/32/libc.a(lib_a-memmove.o)
 .bss           0x0000000000000000        0x0 /usr/local/xenon/xenon/lib/32/libc.a(lib_a-memmove.o)
 .data          0x0000000000000000        0x0 /usr/local/xenon/xenon/lib/32/libc.a(lib_a-mprec.o)
 .bss           0x0000000000000000        0x0 /usr/local/xenon/xenon/lib/32/libc.a(lib_a-mprec.o)
 .data          0x0000000000000000        0x0 /usr/local/xenon/xenon/lib/32/libc.a(lib_a-putc.o)
 .bss           0x0000000000000000        0x0 /usr/local/xenon/xenon/lib/32/libc.a(lib_a-putc.o)
 .data          0x0000000000000000        0x0 /usr/local/xenon/xenon/lib/32/libc.a(lib_a-readr.o)
 .bss           0x0000000000000000        0x0 /usr/local/xenon/xenon/lib/32/libc.a(lib_a-readr.o)
 .data          0x0000000000000000        0x0 /usr/local/xenon/xenon/lib/32/libc.a(lib_a-reallocr.o)
 .bss           0x0000000000000000        0x0 /usr/local/xenon/xenon/lib/32/libc.a(lib_a-reallocr.o)
 .data          0x0000000000000000        0x0 /usr/local/xenon/xenon/lib/32/libc.a(lib_a-svfiprintf.o)
 .bss           0x0000000000000000        0x0 /usr/local/xenon/xenon/lib/32/libc.a(lib_a-svfiprintf.o)
 .data          0x0000000000000000        0x0 /usr/local/xenon/xenon/lib/32/libc.a(lib_a-wbuf.o)
 .bss           0x0000000000000000        0x0 /usr/local/xenon/xenon/lib/32/libc.a(lib_a-wbuf.o)
 .data          0x0000000000000000        0x0 /usr/local/xenon/xenon/lib/32/libc.a(lib_a-wcrtomb.o)
 .bss           0x0000000000000000        0x0 /usr/local/xenon/xenon/lib/32/libc.a(lib_a-wcrtomb.o)
 .data          0x0000000000000000        0x0 /usr/local/xenon/xenon/lib/32/libc.a(lib_a-callocr.o)
 .bss           0x0000000000000000        0x0 /usr/local/xenon/xenon/lib/32/libc.a(lib_a-callocr.o)
 .data          0x0000000000000000        0x0 /usr/local/xenon/lib/gcc/xenon/6.3.0/32/libgcc.a(_udivdi3.o)
 .bss           0x0000000000000000        0x0 /usr/local/xenon/lib/gcc/xenon/6.3.0/32/libgcc.a(_udivdi3.o)
 .data          0x0000000000000000        0x0 /usr/local/xenon/lib/gcc/xenon/6.3.0/32/libgcc.a(_umoddi3.o)
 .bss           0x0000000000000000        0x0 /usr/local/xenon/lib/gcc/xenon/6.3.0/32/libgcc.a(_umoddi3.o)
 .text          0x0000000000000000       0x6c /usr/local/xenon/lib/gcc/xenon/6.3.0/32/crtend.o
 .data          0x0000000000000000        0x0 /usr/local/xenon/lib/gcc/xenon/6.3.0/32/crtend.o
 .bss           0x0000000000000000        0x0 /usr/local/xenon/lib/gcc/xenon/6.3.0/32/crtend.o
 .ctors         0x0000000000000000        0x4 /usr/local/xenon/lib/gcc/xenon/6.3.0/32/crtend.o
 .dtors         0x0000000000000000        0x4 /usr/local/xenon/lib/gcc/xenon/6.3.0/32/crtend.o
 .jcr           0x0000000000000000        0x4 /usr/local/xenon/lib/gcc/xenon/6.3.0/32/crtend.o
 .tm_clone_table
                0x0000000000000000        0x0 /usr/local/xenon/lib/gcc/xenon/6.3.0/32/crtend.o
 .init          0x0000000000000000        0x4 /usr/local/xenon/lib/gcc/xenon/6.3.0/32/crtend.o
 .text          0x0000000000000000        0x0 /usr/local/xenon/lib/gcc/xenon/6.3.0/../../../../xenon/lib/../lib/crtn.o
 .data          0x0000000000000000        0x0 /usr/local/xenon/lib/gcc/xenon/6.3.0/../../../../xenon/lib/../lib/crtn.o
 .bss           0x0000000000000000        0x0 /usr/local/xenon/lib/gcc/xenon/6.3.0/../../../../xenon/lib/../lib/crtn.o
 .init          0x0000000000000000       0x10 /usr/local/xenon/lib/gcc/xenon/6.3.0/../../../../xenon/lib/../lib/crtn.o
 .fini          0x0000000000000000       0x10 /usr/local/xenon/lib/gcc/xenon/6.3.0/../../../../xenon/lib/../lib/crtn.o

Memory Configuration

Name             Origin             Length             Attributes
*default*        0x0000000000000000 0xffffffffffffffff

Linker script and memory map

LOAD /usr/local/xenon/lib/gcc/xenon/6.3.0/../../../../xenon/lib/../lib/crt1.o
LOAD /usr/local/xenon/lib/gcc/xenon/6.3.0/../../../../xenon/lib/../lib/crti.o
LOAD /usr/local/xenon/lib/gcc/xenon/6.3.0/32/crtbegin.o
LOAD main.o
LOAD /usr/local/xenon/usr/lib/libxenon.a
LOAD /usr/local/xenon/xenon/lib/32/libm.a
LOAD /usr/local/xenon/lib/gcc/xenon/6.3.0/32/libgcc.a
LOAD /usr/local/xenon/xenon/lib/32/libc.a
LOAD /usr/local/xenon/lib/gcc/xenon/6.3.0/32/libgcc.a
LOAD /usr/local/xenon/lib/gcc/xenon/6.3.0/32/crtend.o
LOAD /usr/local/xenon/lib/gcc/xenon/6.3.0/../../../../xenon/lib/../lib/crtn.o
                0x0000000080000000                . = 0x80000000

.text           0x0000000080000000    0x1d0fc
 *(.except*)
 .except        0x0000000080000000     0x1e30 /usr/local/xenon/usr/lib/libxenon.a(except.o)
                0x0000000080000000                secondary_lock
                0x0000000080000000                exc_base
                0x0000000080000004                secondary_alive
 *(.pagetable)
 .pagetable     0x0000000080001e30       0x40 /usr/local/xenon/usr/lib/libxenon.a(vm.o)
                0x0000000080001e30                pagetable
                0x0000000080001e70                pagetable_end = .
 *(.init*)
 .init          0x0000000080001e70        0xc /usr/local/xenon/lib/gcc/xenon/6.3.0/../../../../xenon/lib/../lib/crti.o
                0x0000000080001e70                _init
 *(.fini*)
 .fini          0x0000000080001e7c        0xc /usr/local/xenon/lib/gcc/xenon/6.3.0/../../../../xenon/lib/../lib/crti.o
                0x0000000080001e7c                _fini
 *(.text*)
 .text.call_ctors
                0x0000000080001e88       0x48 /usr/local/xenon/lib/gcc/xenon/6.3.0/../../../../xenon/lib/../lib/crt1.o
                0x0000000080001e88                call_ctors
 .text.c_register_frame
                0x0000000080001ed0        0xc /usr/local/xenon/lib/gcc/xenon/6.3.0/../../../../xenon/lib/../lib/crt1.o
                0x0000000080001ed0                c_register_frame
 .text.__crtmain
                0x0000000080001edc       0x2c /usr/local/xenon/lib/gcc/xenon/6.3.0/../../../../xenon/lib/../lib/crt1.o
                0x0000000080001edc                __crtmain
 .text.getTemp  0x0000000080001f08       0xd4 main.o
                0x0000000080001f08                getTemp
 *fill*         0x0000000080001fdc        0x4 
 .text.startup.main
                0x0000000080001fe0      0x168 main.o
                0x0000000080001fe0                main
 .text.__check_argv
                0x0000000080002148       0x28 /usr/local/xenon/usr/lib/libxenon.a(argv.o)
                0x0000000080002148                __check_argv
 *fill*         0x0000000080002170       0x90 
 .text          0x0000000080002200      0x2f4 /usr/local/xenon/usr/lib/libxenon.a(startup_from_xell.o)
                0x0000000080002200                _start
                0x00000000800023f8                wait
                0x0000000080002480                return_to_xell
 .text.console_clrscr
                0x00000000800024f4       0x7c /usr/local/xenon/usr/lib/libxenon.a(console.o)
                0x00000000800024f4                console_clrscr
 .text.console_newline
                0x0000000080002570       0xd4 /usr/local/xenon/usr/lib/libxenon.a(console.o)
                0x0000000080002570                console_newline
 .text.console_putch
                0x0000000080002644      0x184 /usr/local/xenon/usr/lib/libxenon.a(console.o)
                0x0000000080002644                console_putch
 .text.console_stdout_hook
                0x00000000800027c8       0x3c /usr/local/xenon/usr/lib/libxenon.a(console.o)
 .text.console_init
                0x0000000080002804      0x148 /usr/local/xenon/usr/lib/libxenon.a(console.o)
                0x0000000080002804                console_init
 .text.console_set_colors
                0x000000008000294c       0x14 /usr/local/xenon/usr/lib/libxenon.a(console.o)
                0x000000008000294c                console_set_colors
 .text.get_controller_data
                0x0000000080002960       0x5c /usr/local/xenon/usr/lib/libxenon.a(input.o)
                0x0000000080002960                get_controller_data
 .text.set_controller_data
                0x00000000800029bc       0x50 /usr/local/xenon/usr/lib/libxenon.a(input.o)
                0x00000000800029bc                set_controller_data
 .text.vfs_console_write
                0x0000000080002a0c       0x88 /usr/local/xenon/usr/lib/libxenon.a(newlib.o)
                0x0000000080002a0c                vfs_console_write
 .text.__malloc_lock
                0x0000000080002a94       0x18 /usr/local/xenon/usr/lib/libxenon.a(newlib.o)
                0x0000000080002a94                __malloc_lock
 .text.__malloc_unlock
                0x0000000080002aac       0x18 /usr/local/xenon/usr/lib/libxenon.a(newlib.o)
                0x0000000080002aac                __malloc_unlock
 .text._exit    0x0000000080002ac4       0x2c /usr/local/xenon/usr/lib/libxenon.a(newlib.o)
                0x0000000080002ac4                _exit
 .text.sbrk     0x0000000080002af0       0x34 /usr/local/xenon/usr/lib/libxenon.a(newlib.o)
                0x0000000080002af0                sbrk
 .text.abort    0x0000000080002b24       0x2c /usr/local/xenon/usr/lib/libxenon.a(newlib.o)
                0x0000000080002b24                abort
 .text.isatty   0x0000000080002b50        0x8 /usr/local/xenon/usr/lib/libxenon.a(newlib.o)
                0x0000000080002b50                isatty
 .text.__release_handle
                0x0000000080002b58       0x4c /usr/local/xenon/usr/lib/libxenon.a(newlib.o)
                0x0000000080002b58                __release_handle
 .text.__get_handle
                0x0000000080002ba4       0x28 /usr/local/xenon/usr/lib/libxenon.a(newlib.o)
                0x0000000080002ba4                __get_handle
 .text.read     0x0000000080002bcc       0xa4 /usr/local/xenon/usr/lib/libxenon.a(newlib.o)
                0x0000000080002bcc                read
 .text.write    0x0000000080002c70       0xb0 /usr/local/xenon/usr/lib/libxenon.a(newlib.o)
                0x0000000080002c70                write
 .text.fstat    0x0000000080002d20       0xa0 /usr/local/xenon/usr/lib/libxenon.a(newlib.o)
                0x0000000080002d20                fstat
 .text.lseek    0x0000000080002dc0       0xa4 /usr/local/xenon/usr/lib/libxenon.a(newlib.o)
                0x0000000080002dc0                lseek
 .text.close    0x0000000080002e64       0x88 /usr/local/xenon/usr/lib/libxenon.a(newlib.o)
                0x0000000080002e64                close
 .text.xenon_sbrk
                0x0000000080002eec       0x2c /usr/local/xenon/usr/lib/libxenon.a(xenon_syscalls.o)
 .text.xenon_gettimeofday
                0x0000000080002f18       0xa4 /usr/local/xenon/usr/lib/libxenon.a(xenon_syscalls.o)
 .text.xenon_malloc_unlock
                0x0000000080002fbc       0xc4 /usr/local/xenon/usr/lib/libxenon.a(xenon_syscalls.o)
 .text.xenon_malloc_lock
                0x0000000080003080       0xf0 /usr/local/xenon/usr/lib/libxenon.a(xenon_syscalls.o)
 .text.shutdown_drivers
                0x0000000080003170       0x30 /usr/local/xenon/usr/lib/libxenon.a(xenon_syscalls.o)
                0x0000000080003170                shutdown_drivers
 .text.try_return_to_xell
                0x00000000800031a0       0x64 /usr/local/xenon/usr/lib/libxenon.a(xenon_syscalls.o)
                0x00000000800031a0                try_return_to_xell
 .text.xenon_exit
                0x0000000080003204      0x154 /usr/local/xenon/usr/lib/libxenon.a(xenon_syscalls.o)
 .text.kfree    0x0000000080003358       0xb4 /usr/local/xenon/usr/lib/libxenon.a(lib_malloc.o)
                0x0000000080003358                kfree
 .text.lib_outofmemory
                0x000000008000340c        0xc /usr/local/xenon/usr/lib/libxenon.a(lib_malloc.o)
                0x000000008000340c                lib_outofmemory
 .text.kmalloc  0x0000000080003418      0x130 /usr/local/xenon/usr/lib/libxenon.a(lib_malloc.o)
                0x0000000080003418                kmalloc
 .text.kmem_init
                0x0000000080003548       0x70 /usr/local/xenon/usr/lib/libxenon.a(lib_malloc.o)
                0x0000000080003548                kmem_init
 .text          0x00000000800035b8       0x94 /usr/local/xenon/usr/lib/libxenon.a(atomic.o)
                0x00000000800035b8                atomic_inc
                0x00000000800035cc                atomic_dec
                0x00000000800035e0                atomic_clearset
                0x00000000800035f8                lock
                0x0000000080003634                unlock
 .text          0x000000008000364c       0xa8 /usr/local/xenon/usr/lib/libxenon.a(cache.o)
                0x000000008000364c                memdcbt
                0x0000000080003674                memdcbst
                0x000000008000369c                memdcbf
                0x00000000800036c4                memicbi
 .text.flush_console
                0x00000000800036f4       0x48 /usr/local/xenon/usr/lib/libxenon.a(c_except.o)
 .text.crashdump
                0x000000008000373c      0x2b4 /usr/local/xenon/usr/lib/libxenon.a(c_except.o)
                0x000000008000373c                crashdump
 .text.tdelay   0x00000000800039f0       0x50 /usr/local/xenon/usr/lib/libxenon.a(time.o)
 .text.udelay   0x0000000080003a40       0x24 /usr/local/xenon/usr/lib/libxenon.a(time.o)
                0x0000000080003a40                udelay
 .text.mdelay   0x0000000080003a64       0x18 /usr/local/xenon/usr/lib/libxenon.a(time.o)
                0x0000000080003a64                mdelay
 .text.delay    0x0000000080003a7c       0x18 /usr/local/xenon/usr/lib/libxenon.a(time.o)
                0x0000000080003a7c                delay
 .text.usbctrl_queue_intreq
                0x0000000080003a94       0x4c /usr/local/xenon/usr/lib/libxenon.a(usbctrl.o)
 .text.usbctrl_set_led_callback
                0x0000000080003ae0       0x38 /usr/local/xenon/usr/lib/libxenon.a(usbctrl.o)
 .text.usbctrl_set_rol
                0x0000000080003b18       0x2c /usr/local/xenon/usr/lib/libxenon.a(usbctrl.o)
                0x0000000080003b18                usbctrl_set_rol
 .text.usbctrl_detach
                0x0000000080003b44       0x88 /usr/local/xenon/usr/lib/libxenon.a(usbctrl.o)
 .text.usbctrl_set_leds
                0x0000000080003bcc      0x120 /usr/local/xenon/usr/lib/libxenon.a(usbctrl.o)
                0x0000000080003bcc                usbctrl_set_leds
 .text.usbctrl_ireq_callback
                0x0000000080003cec      0x260 /usr/local/xenon/usr/lib/libxenon.a(usbctrl.o)
 .text.usbctrl_poll
                0x0000000080003f4c       0xc0 /usr/local/xenon/usr/lib/libxenon.a(usbctrl.o)
                0x0000000080003f4c                usbctrl_poll
 .text.usbctrl_attach
                0x000000008000400c      0x2f8 /usr/local/xenon/usr/lib/libxenon.a(usbctrl.o)
 .text.usb_create_pipe
                0x0000000080004304       0xcc /usr/local/xenon/usr/lib/libxenon.a(usbd.o)
                0x0000000080004304                usb_create_pipe
 .text.usb_open_pipe
                0x00000000800043d0       0x78 /usr/local/xenon/usr/lib/libxenon.a(usbd.o)
                0x00000000800043d0                usb_open_pipe
 .text.usb_destroy_all_pipes
                0x0000000080004448       0x74 /usr/local/xenon/usr/lib/libxenon.a(usbd.o)
                0x0000000080004448                usb_destroy_all_pipes
 .text.usb_destroy_device
                0x00000000800044bc       0x50 /usr/local/xenon/usr/lib/libxenon.a(usbd.o)
                0x00000000800044bc                usb_destroy_device
 .text.usb_create_device
                0x000000008000450c       0x80 /usr/local/xenon/usr/lib/libxenon.a(usbd.o)
                0x000000008000450c                usb_create_device
 .text.usb_make_request
                0x000000008000458c       0x8c /usr/local/xenon/usr/lib/libxenon.a(usbd.o)
                0x000000008000458c                usb_make_request
 .text.usb_poll
                0x0000000080004618       0x10 /usr/local/xenon/usr/lib/libxenon.a(usbd.o)
                0x0000000080004618                usb_poll
 .text.usb_daemon
                0x0000000080004628       0x18 /usr/local/xenon/usr/lib/libxenon.a(usbd.o)
                0x0000000080004628                usb_daemon
 .text.usb_free_request
                0x0000000080004640       0x28 /usr/local/xenon/usr/lib/libxenon.a(usbd.o)
                0x0000000080004640                usb_free_request
 .text.usb_delay_ms
                0x0000000080004668        0x8 /usr/local/xenon/usr/lib/libxenon.a(usbd.o)
                0x0000000080004668                usb_delay_ms
 .text.usb_queue_request
                0x0000000080004670       0x34 /usr/local/xenon/usr/lib/libxenon.a(usbd.o)
                0x0000000080004670                usb_queue_request
 .text.usb_wait_request
                0x00000000800046a4       0x3c /usr/local/xenon/usr/lib/libxenon.a(usbd.o)
                0x00000000800046a4                usb_wait_request
 .text.usb_sync_request
                0x00000000800046e0       0x30 /usr/local/xenon/usr/lib/libxenon.a(usbd.o)
                0x00000000800046e0                usb_sync_request
 .text.usb_new_address
                0x0000000080004710       0x2c /usr/local/xenon/usr/lib/libxenon.a(usbd.o)
                0x0000000080004710                usb_new_address
 .text.usb_set_ep0mps
                0x000000008000473c       0x58 /usr/local/xenon/usr/lib/libxenon.a(usbd.o)
                0x000000008000473c                usb_set_ep0mps
 .text.usb_clear_stall
                0x0000000080004794      0x100 /usr/local/xenon/usr/lib/libxenon.a(usbd.o)
                0x0000000080004794                usb_clear_stall
 .text.usb_std_request
                0x0000000080004894      0x22c /usr/local/xenon/usr/lib/libxenon.a(usbd.o)
                0x0000000080004894                usb_std_request
 .text.usb_simple_request
                0x0000000080004ac0       0x18 /usr/local/xenon/usr/lib/libxenon.a(usbd.o)
                0x0000000080004ac0                usb_simple_request
 .text.usb_set_configuration
                0x0000000080004ad8       0x14 /usr/local/xenon/usr/lib/libxenon.a(usbd.o)
                0x0000000080004ad8                usb_set_configuration
 .text.usb_set_address
                0x0000000080004aec       0x98 /usr/local/xenon/usr/lib/libxenon.a(usbd.o)
                0x0000000080004aec                usb_set_address
 .text.usb_get_descriptor
                0x0000000080004b84       0x20 /usr/local/xenon/usr/lib/libxenon.a(usbd.o)
                0x0000000080004b84                usb_get_descriptor
 .text.usb_get_string
                0x0000000080004ba4       0xf8 /usr/local/xenon/usr/lib/libxenon.a(usbd.o)
                0x0000000080004ba4                usb_get_string
 .text.usb_get_device_descriptor
                0x0000000080004c9c       0x94 /usr/local/xenon/usr/lib/libxenon.a(usbd.o)
                0x0000000080004c9c                usb_get_device_descriptor
 .text.usb_get_config_descriptor
                0x0000000080004d30       0x8c /usr/local/xenon/usr/lib/libxenon.a(usbd.o)
                0x0000000080004d30                usb_get_config_descriptor
 .text.usb_get_device_status
                0x0000000080004dbc       0x1c /usr/local/xenon/usr/lib/libxenon.a(usbd.o)
                0x0000000080004dbc                usb_get_device_status
 .text.usb_complete_request
                0x0000000080004dd8       0x20 /usr/local/xenon/usr/lib/libxenon.a(usbd.o)
                0x0000000080004dd8                usb_complete_request
 .text.usb_initroot
                0x0000000080004df8      0x148 /usr/local/xenon/usr/lib/libxenon.a(usbd.o)
                0x0000000080004df8                usb_initroot
 .text.usb_find_cfg_descr
                0x0000000080004f40       0x4c /usr/local/xenon/usr/lib/libxenon.a(usbd.o)
                0x0000000080004f40                usb_find_cfg_descr
 .text.usb_find_driver
                0x0000000080004f8c      0x148 /usr/local/xenon/usr/lib/libxenon.a(usbdevs.o)
                0x0000000080004f8c                usb_find_driver
 .text.usbhid_detach
                0x00000000800050d4        0x8 /usr/local/xenon/usr/lib/libxenon.a(usbhid.o)
 .text.usbhid_attach
                0x00000000800050dc      0x160 /usr/local/xenon/usr/lib/libxenon.a(usbhid.o)
 .text.usbhid_ireq_callback
                0x000000008000523c      0x170 /usr/local/xenon/usr/lib/libxenon.a(usbhid.o)
 .text.usbhub_markdetached1
                0x00000000800053ac       0x14 /usr/local/xenon/usr/lib/libxenon.a(usbhub.o)
 .text.usbhub_get_port_status
                0x00000000800053c0       0x1c /usr/local/xenon/usr/lib/libxenon.a(usbhub.o)
 .text.usbhub_ireq_callback
                0x00000000800053dc       0x88 /usr/local/xenon/usr/lib/libxenon.a(usbhub.o)
 .text.usbhub_map_tree1
                0x0000000080005464       0x78 /usr/local/xenon/usr/lib/libxenon.a(usbhub.o)
 .text.usbhub_detach
                0x00000000800054dc      0x144 /usr/local/xenon/usr/lib/libxenon.a(usbhub.o)
 .text.usbhub_attach
                0x0000000080005620      0x194 /usr/local/xenon/usr/lib/libxenon.a(usbhub.o)
 .text.usbhub_map_tree
                0x00000000800057b4       0x14 /usr/local/xenon/usr/lib/libxenon.a(usbhub.o)
                0x00000000800057b4                usbhub_map_tree
 .text.usbhub_map_from_device
                0x00000000800057c8       0x10 /usr/local/xenon/usr/lib/libxenon.a(usbhub.o)
                0x00000000800057c8                usbhub_map_from_device
 .text.usbhub_scan1
                0x00000000800057d8      0x530 /usr/local/xenon/usr/lib/libxenon.a(usbhub.o)
 .text.usb_scan
                0x0000000080005d08       0x10 /usr/local/xenon/usr/lib/libxenon.a(usbhub.o)
                0x0000000080005d08                usb_scan
 .text.usb_init_one_ohci
                0x0000000080005d18       0xcc /usr/local/xenon/usr/lib/libxenon.a(usbmain.o)
 .text.usb_shutdown
                0x0000000080005de4       0x54 /usr/local/xenon/usr/lib/libxenon.a(usbmain.o)
                0x0000000080005de4                usb_shutdown
 .text.usb_init
                0x0000000080005e38       0xe0 /usr/local/xenon/usr/lib/libxenon.a(usbmain.o)
                0x0000000080005e38                usb_init
 .text.usb_do_poll
                0x0000000080005f18       0xac /usr/local/xenon/usr/lib/libxenon.a(usbmain.o)
                0x0000000080005f18                usb_do_poll
 .text.qtd_fill
                0x0000000080005fc4       0x9c /usr/local/xenon/usr/lib/libxenon.a(tinyehci.o)
 .text.ehci_qtd_alloc
                0x0000000080006060       0x78 /usr/local/xenon/usr/lib/libxenon.a(tinyehci.o)
 .text.handshake.isra.5
                0x00000000800060d8      0x148 /usr/local/xenon/usr/lib/libxenon.a(tinyehci.o)
 .text.ehci_mem_init
                0x0000000080006220       0xf0 /usr/local/xenon/usr/lib/libxenon.a(tinyehci.o)
                0x0000000080006220                ehci_mem_init
 .text.qh_urb_transaction
                0x0000000080006310      0x1b4 /usr/local/xenon/usr/lib/libxenon.a(tinyehci.o)
                0x0000000080006310                qh_urb_transaction
 .text.ehci_do_urb
                0x00000000800064c4      0x39c /usr/local/xenon/usr/lib/libxenon.a(tinyehci.o)
                0x00000000800064c4                ehci_do_urb
 .text.ehci_control_message
                0x0000000080006860       0x6c /usr/local/xenon/usr/lib/libxenon.a(tinyehci.o)
                0x0000000080006860                ehci_control_message
 .text.ehci_bulk_message
                0x00000000800068cc       0x48 /usr/local/xenon/usr/lib/libxenon.a(tinyehci.o)
                0x00000000800068cc                ehci_bulk_message
 .text.__send_cbw
                0x0000000080006914      0x11c /usr/local/xenon/usr/lib/libxenon.a(tinyehci.o)
 .text.ehci_reset_port_old
                0x0000000080006a30      0x190 /usr/local/xenon/usr/lib/libxenon.a(tinyehci.o)
                0x0000000080006a30                ehci_reset_port_old
 .text.ehci_adquire_port
                0x0000000080006bc0       0x80 /usr/local/xenon/usr/lib/libxenon.a(tinyehci.o)
                0x0000000080006bc0                ehci_adquire_port
 .text.ehci_reset_usb_port
                0x0000000080006c40      0x148 /usr/local/xenon/usr/lib/libxenon.a(tinyehci.o)
                0x0000000080006c40                ehci_reset_usb_port
 .text.ehci_reset_port2
                0x0000000080006d88       0x5c /usr/local/xenon/usr/lib/libxenon.a(tinyehci.o)
                0x0000000080006d88                ehci_reset_port2
 .text.USB_FreeDescriptors
                0x0000000080006de4       0xc4 /usr/local/xenon/usr/lib/libxenon.a(tinyehci.o)
                0x0000000080006de4                USB_FreeDescriptors
 .text.USB_GetDescriptors
                0x0000000080006ea8      0x348 /usr/local/xenon/usr/lib/libxenon.a(tinyehci.o)
                0x0000000080006ea8                USB_GetDescriptors
 .text.USB_GetConfiguration
                0x00000000800071f0       0x80 /usr/local/xenon/usr/lib/libxenon.a(tinyehci.o)
                0x00000000800071f0                USB_GetConfiguration
 .text.USB_SetConfiguration
                0x0000000080007270       0x1c /usr/local/xenon/usr/lib/libxenon.a(tinyehci.o)
                0x0000000080007270                USB_SetConfiguration
 .text.USB_SetAlternativeInterface
                0x000000008000728c       0x28 /usr/local/xenon/usr/lib/libxenon.a(tinyehci.o)
                0x000000008000728c                USB_SetAlternativeInterface
 .text.USB_ClearHalt
                0x00000000800072b4       0x1c /usr/local/xenon/usr/lib/libxenon.a(tinyehci.o)
                0x00000000800072b4                USB_ClearHalt
 .text.ehci_init_port
                0x00000000800072d0      0x148 /usr/local/xenon/usr/lib/libxenon.a(tinyehci.o)
                0x00000000800072d0                ehci_init_port
 .text.ehci_reset_port
                0x0000000080007418       0x50 /usr/local/xenon/usr/lib/libxenon.a(tinyehci.o)
                0x0000000080007418                ehci_reset_port
 .text.ehci_reset_device
                0x0000000080007468        0x8 /usr/local/xenon/usr/lib/libxenon.a(tinyehci.o)
                0x0000000080007468                ehci_reset_device
 .text.ehci_discover
                0x0000000080007470       0x54 /usr/local/xenon/usr/lib/libxenon.a(tinyehci.o)
                0x0000000080007470                ehci_discover
 .text.EHCI_do_one
                0x00000000800074c4      0x10c /usr/local/xenon/usr/lib/libxenon.a(tinyehci.o)
 .text.find_ehci_data
                0x00000000800075d0       0x3c /usr/local/xenon/usr/lib/libxenon.a(tinyehci.o)
                0x00000000800075d0                find_ehci_data
 .text.USBStorage_Close
                0x000000008000760c       0x40 /usr/local/xenon/usr/lib/libxenon.a(tinyehci.o)
                0x000000008000760c                USBStorage_Close
 .text.USBStorage_ReadCapacity
                0x000000008000764c       0xbc /usr/local/xenon/usr/lib/libxenon.a(tinyehci.o)
                0x000000008000764c                USBStorage_ReadCapacity
 .text.USBStorage_MountLUN
                0x0000000080007708      0x1c0 /usr/local/xenon/usr/lib/libxenon.a(tinyehci.o)
                0x0000000080007708                USBStorage_MountLUN
 .text.__usbstorage_reset.isra.9
                0x00000000800078c8      0x1a0 /usr/local/xenon/usr/lib/libxenon.a(tinyehci.o)
 .text.USBStorage_Open
                0x0000000080007a68      0x320 /usr/local/xenon/usr/lib/libxenon.a(tinyehci.o)
                0x0000000080007a68                USBStorage_Open
 .text.__cycle.constprop.14
                0x0000000080007d88      0x29c /usr/local/xenon/usr/lib/libxenon.a(tinyehci.o)
 .text.USBStorage_Inquiry
                0x0000000080008024       0xa4 /usr/local/xenon/usr/lib/libxenon.a(tinyehci.o)
                0x0000000080008024                USBStorage_Inquiry
 .text.USBStorage_Try_Device
                0x00000000800080c8      0x154 /usr/local/xenon/usr/lib/libxenon.a(tinyehci.o)
                0x00000000800080c8                USBStorage_Try_Device
 .text.USBStorage_Init
                0x000000008000821c      0x208 /usr/local/xenon/usr/lib/libxenon.a(tinyehci.o)
                0x000000008000821c                USBStorage_Init
 .text.EHCI_Init
                0x0000000080008424       0x50 /usr/local/xenon/usr/lib/libxenon.a(tinyehci.o)
                0x0000000080008424                EHCI_Init
 .text.data_breakpoint
                0x0000000080008474       0x40 /usr/local/xenon/usr/lib/libxenon.a(debug.o)
                0x0000000080008474                data_breakpoint
 .text.uprintf  0x00000000800084b4       0x94 /usr/local/xenon/usr/lib/libxenon.a(xenon_smc.o)
                0x00000000800084b4                uprintf
 .text.xenon_smc_send_message
                0x0000000080008548       0x50 /usr/local/xenon/usr/lib/libxenon.a(xenon_smc.o)
                0x0000000080008548                xenon_smc_send_message
 .text.xenon_smc_receive_message
                0x0000000080008598       0x58 /usr/local/xenon/usr/lib/libxenon.a(xenon_smc.o)
                0x0000000080008598                xenon_smc_receive_message
 .text.xenon_smc_handle_bulk
                0x00000000800085f0       0x68 /usr/local/xenon/usr/lib/libxenon.a(xenon_smc.o)
                0x00000000800085f0                xenon_smc_handle_bulk
 .text.xenon_smc_receive_response
                0x0000000080008658       0x44 /usr/local/xenon/usr/lib/libxenon.a(xenon_smc.o)
                0x0000000080008658                xenon_smc_receive_response
 .text.xenon_smc_ana_write
                0x000000008000869c       0x98 /usr/local/xenon/usr/lib/libxenon.a(xenon_smc.o)
                0x000000008000869c                xenon_smc_ana_write
 .text.xenon_smc_ana_read
                0x0000000080008734       0x9c /usr/local/xenon/usr/lib/libxenon.a(xenon_smc.o)
                0x0000000080008734                xenon_smc_ana_read
 .text.xenon_smc_i2c_ddc_lock
                0x00000000800087d0       0x78 /usr/local/xenon/usr/lib/libxenon.a(xenon_smc.o)
                0x00000000800087d0                xenon_smc_i2c_ddc_lock
 .text.xenon_smc_i2c_write
                0x0000000080008848       0xa4 /usr/local/xenon/usr/lib/libxenon.a(xenon_smc.o)
                0x0000000080008848                xenon_smc_i2c_write
 .text.xenon_smc_i2c_read
                0x00000000800088ec       0xbc /usr/local/xenon/usr/lib/libxenon.a(xenon_smc.o)
                0x00000000800088ec                xenon_smc_i2c_read
 .text.xenon_smc_power_reboot
                0x00000000800089a8       0x48 /usr/local/xenon/usr/lib/libxenon.a(xenon_smc.o)
                0x00000000800089a8                xenon_smc_power_reboot
 .text.xenon_smc_read_avpack
                0x00000000800089f0       0x44 /usr/local/xenon/usr/lib/libxenon.a(xenon_smc.o)
                0x00000000800089f0                xenon_smc_read_avpack
 .text.xenon_smc_set_fan_algorithm
                0x0000000080008a34       0x3c /usr/local/xenon/usr/lib/libxenon.a(xenon_smc.o)
                0x0000000080008a34                xenon_smc_set_fan_algorithm
 .text.wakeup_cpus
                0x0000000080008a70       0xb8 /usr/local/xenon/usr/lib/libxenon.a(xenon_power.o)
                0x0000000080008a70                wakeup_cpus
 .text.prepare_sleep
                0x0000000080008b28       0x74 /usr/local/xenon/usr/lib/libxenon.a(xenon_power.o)
                0x0000000080008b28                prepare_sleep
 .text.xenon_thread_sleep
                0x0000000080008b9c       0x58 /usr/local/xenon/usr/lib/libxenon.a(xenon_power.o)
                0x0000000080008b9c                xenon_thread_sleep
 .text.xenon_set_speed
                0x0000000080008bf4      0x304 /usr/local/xenon/usr/lib/libxenon.a(xenon_power.o)
                0x0000000080008bf4                xenon_set_speed
 .text.xenon_run_thread_task
                0x0000000080008ef8       0x3c /usr/local/xenon/usr/lib/libxenon.a(xenon_power.o)
                0x0000000080008ef8                xenon_run_thread_task
 .text.xenon_is_thread_task_running
                0x0000000080008f34       0x1c /usr/local/xenon/usr/lib/libxenon.a(xenon_power.o)
                0x0000000080008f34                xenon_is_thread_task_running
 .text.xenon_thread_startup
                0x0000000080008f50       0x48 /usr/local/xenon/usr/lib/libxenon.a(xenon_power.o)
                0x0000000080008f50                xenon_thread_startup
 .text.xenon_set_single_thread_mode
                0x0000000080008f98       0x98 /usr/local/xenon/usr/lib/libxenon.a(xenon_power.o)
                0x0000000080008f98                xenon_set_single_thread_mode
 .text.xenon_make_it_faster
                0x0000000080009030       0xfc /usr/local/xenon/usr/lib/libxenon.a(xenon_power.o)
                0x0000000080009030                xenon_make_it_faster
 .text.putch    0x000000008000912c       0x50 /usr/local/xenon/usr/lib/libxenon.a(xenon_uart.o)
                0x000000008000912c                putch
 .text.uart_puts
                0x000000008000917c       0x30 /usr/local/xenon/usr/lib/libxenon.a(xenon_uart.o)
                0x000000008000917c                uart_puts
 .text.xenon_config_init
                0x00000000800091ac       0xa4 /usr/local/xenon/usr/lib/libxenon.a(xenon_config.o)
                0x00000000800091ac                xenon_config_init
 .text.xenon_config_get_avregion
                0x0000000080009250       0xa0 /usr/local/xenon/usr/lib/libxenon.a(xenon_config.o)
                0x0000000080009250                xenon_config_get_avregion
 .text.xenon_config_get_vid_delta
                0x00000000800092f0       0x40 /usr/local/xenon/usr/lib/libxenon.a(xenon_config.o)
                0x00000000800092f0                xenon_config_get_vid_delta
 .text.xenos_ana_write
                0x0000000080009330       0xac /usr/local/xenon/usr/lib/libxenon.a(xenos.o)
 .text.xenos_init_ana_new
                0x00000000800093dc      0x4fc /usr/local/xenon/usr/lib/libxenon.a(xenos.o)
                0x00000000800093dc                xenos_init_ana_new
 .text.xenos_init_phase0
                0x00000000800098d8       0xa0 /usr/local/xenon/usr/lib/libxenon.a(xenos.o)
                0x00000000800098d8                xenos_init_phase0
 .text.xenos_init_phase1
                0x0000000080009978      0x334 /usr/local/xenon/usr/lib/libxenon.a(xenos.o)
                0x0000000080009978                xenos_init_phase1
 .text.xenos_ana_preinit
                0x0000000080009cac       0xcc /usr/local/xenon/usr/lib/libxenon.a(xenos.o)
                0x0000000080009cac                xenos_ana_preinit
 .text.xenos_set_mode_f1
                0x0000000080009d78       0xf8 /usr/local/xenon/usr/lib/libxenon.a(xenos.o)
                0x0000000080009d78                xenos_set_mode_f1
 .text.xenos_set_mode_f2
                0x0000000080009e70      0x248 /usr/local/xenon/usr/lib/libxenon.a(xenos.o)
                0x0000000080009e70                xenos_set_mode_f2
 .text.xenos_set_mode
                0x000000008000a0b8      0x2c8 /usr/local/xenon/usr/lib/libxenon.a(xenos.o)
                0x000000008000a0b8                xenos_set_mode
 .text.xenos_hdmi_vga_mode_fix
                0x000000008000a380       0x40 /usr/local/xenon/usr/lib/libxenon.a(xenos.o)
                0x000000008000a380                xenos_hdmi_vga_mode_fix
 .text.xenos_autoset_mode
                0x000000008000a3c0      0x150 /usr/local/xenon/usr/lib/libxenon.a(xenos.o)
                0x000000008000a3c0                xenos_autoset_mode
 .text.xenos_init
                0x000000008000a510      0x148 /usr/local/xenon/usr/lib/libxenon.a(xenos.o)
                0x000000008000a510                xenos_init
 .text.xenos_is_overscan
                0x000000008000a658       0x38 /usr/local/xenon/usr/lib/libxenon.a(xenos.o)
                0x000000008000a658                xenos_is_overscan
 .text.xenos_is_initialized
                0x000000008000a690       0x14 /usr/local/xenon/usr/lib/libxenon.a(xenos.o)
                0x000000008000a690                xenos_is_initialized
 .text.xenos_do_probe_ddc_edid
                0x000000008000a6a4      0x194 /usr/local/xenon/usr/lib/libxenon.a(xenos_edid.o)
                0x000000008000a6a4                xenos_do_probe_ddc_edid
 .text.xenos_ddc_read_edid
                0x000000008000a838      0x128 /usr/local/xenon/usr/lib/libxenon.a(xenos_edid.o)
 .text.xenos_get_edid
                0x000000008000a960       0xa4 /usr/local/xenon/usr/lib/libxenon.a(xenos_edid.o)
                0x000000008000a960                xenos_get_edid
 .text.xenos_detect_hdmi_monitor
                0x000000008000aa04       0xe0 /usr/local/xenon/usr/lib/libxenon.a(xenos_edid.o)
                0x000000008000aa04                xenos_detect_hdmi_monitor
 .text.enet_quiesce
                0x000000008000aae4       0x18 /usr/local/xenon/usr/lib/libxenon.a(enet.o)
                0x000000008000aae4                enet_quiesce
 .text.xenon_get_DVE
                0x000000008000aafc       0x34 /usr/local/xenon/usr/lib/libxenon.a(xb360.o)
                0x000000008000aafc                xenon_get_DVE
 .text.xenon_get_PCIBridgeRevisionID
                0x000000008000ab30       0x14 /usr/local/xenon/usr/lib/libxenon.a(xb360.o)
                0x000000008000ab30                xenon_get_PCIBridgeRevisionID
 .text.xenon_get_XenosID
                0x000000008000ab44       0x10 /usr/local/xenon/usr/lib/libxenon.a(xb360.o)
                0x000000008000ab44                xenon_get_XenosID
 .text.xenon_get_console_type
                0x000000008000ab54       0xc0 /usr/local/xenon/usr/lib/libxenon.a(xb360.o)
                0x000000008000ab54                xenon_get_console_type
 .text.xenon_logical_nand_data_ok
                0x000000008000ac14       0x18 /usr/local/xenon/usr/lib/libxenon.a(xb360.o)
                0x000000008000ac14                xenon_logical_nand_data_ok
 .text.xenon_get_logical_nand_data
                0x000000008000ac2c       0x50 /usr/local/xenon/usr/lib/libxenon.a(xb360.o)
                0x000000008000ac2c                xenon_get_logical_nand_data
 .text.dummy_attach
                0x000000008000ac7c        0x8 /usr/local/xenon/usr/lib/libxenon.a(dummy.o)
 .text.dummy_detach
                0x000000008000ac84        0x8 /usr/local/xenon/usr/lib/libxenon.a(dummy.o)
 .text._ohci_allocept
                0x000000008000ac8c       0x64 /usr/local/xenon/usr/lib/libxenon.a(ohci.o)
 .text._ohci_allocxfer
                0x000000008000acf0       0x5c /usr/local/xenon/usr/lib/libxenon.a(ohci.o)
 .text.ohci_stop
                0x000000008000ad4c       0x14 /usr/local/xenon/usr/lib/libxenon.a(ohci.o)
 .text.ohci_delete
                0x000000008000ad60        0x4 /usr/local/xenon/usr/lib/libxenon.a(ohci.o)
 .text.ohci_ept_cleartoggle
                0x000000008000ad64       0x44 /usr/local/xenon/usr/lib/libxenon.a(ohci.o)
 .text.ohci_ept_setaddr
                0x000000008000ada8       0x38 /usr/local/xenon/usr/lib/libxenon.a(ohci.o)
 .text.ohci_ept_setmps
                0x000000008000ade0       0x40 /usr/local/xenon/usr/lib/libxenon.a(ohci.o)
 .text._ohci_queueept
                0x000000008000ae20       0x5c /usr/local/xenon/usr/lib/libxenon.a(ohci.o)
 .text.ohci_ept_create
                0x000000008000ae7c      0x130 /usr/local/xenon/usr/lib/libxenon.a(ohci.o)
 .text.ohci_ept_delete
                0x000000008000afac      0x1b0 /usr/local/xenon/usr/lib/libxenon.a(ohci.o)
 .text.ohci_start
                0x000000008000b15c      0x164 /usr/local/xenon/usr/lib/libxenon.a(ohci.o)
 .text.ohci_roothub_strdscr
                0x000000008000b2c0       0x6c /usr/local/xenon/usr/lib/libxenon.a(ohci.o)
 .text.ohci_intr
                0x000000008000b32c      0x1e4 /usr/local/xenon/usr/lib/libxenon.a(ohci.o)
 .text._ohci_dma_alloc
                0x000000008000b510       0x50 /usr/local/xenon/usr/lib/libxenon.a(ohci.o)
 .text.ohci_xfer
                0x000000008000b560      0x728 /usr/local/xenon/usr/lib/libxenon.a(ohci.o)
 .text.ohci_create
                0x000000008000bc88      0x29c /usr/local/xenon/usr/lib/libxenon.a(ohci.o)
 .text.getstringmaybe
                0x000000008000bf24       0x6c /usr/local/xenon/usr/lib/libxenon.a(usbdebug.o)
 .text.usb_dbg_dumpportstatus
                0x000000008000bf90      0x244 /usr/local/xenon/usr/lib/libxenon.a(usbdebug.o)
                0x000000008000bf90                usb_dbg_dumpportstatus
 .text.usb_dbg_dumpdescriptors
                0x000000008000c1d4      0x620 /usr/local/xenon/usr/lib/libxenon.a(usbdebug.o)
                0x000000008000c1d4                usb_dbg_dumpdescriptors
 .text.ehci_maligned
                0x000000008000c7f4       0x88 /usr/local/xenon/usr/lib/libxenon.a(usb_os.o)
                0x000000008000c7f4                ehci_maligned
 .text.ehci_virt_to_dma
                0x000000008000c87c        0x8 /usr/local/xenon/usr/lib/libxenon.a(usb_os.o)
                0x000000008000c87c                ehci_virt_to_dma
 .text.ehci_dma_map_to
                0x000000008000c884       0x24 /usr/local/xenon/usr/lib/libxenon.a(usb_os.o)
                0x000000008000c884                ehci_dma_map_to
 .text.ehci_dma_map_from
                0x000000008000c8a8       0x24 /usr/local/xenon/usr/lib/libxenon.a(usb_os.o)
                0x000000008000c8a8                ehci_dma_map_from
 .text.ehci_dma_map_bidir
                0x000000008000c8cc       0x24 /usr/local/xenon/usr/lib/libxenon.a(usb_os.o)
                0x000000008000c8cc                ehci_dma_map_bidir
 .text.ehci_dma_unmap_bidir
                0x000000008000c8f0        0x8 /usr/local/xenon/usr/lib/libxenon.a(usb_os.o)
                0x000000008000c8f0                ehci_dma_unmap_bidir
 .text.ehci_dma_unmap_from
                0x000000008000c8f8        0x4 /usr/local/xenon/usr/lib/libxenon.a(usb_os.o)
                0x000000008000c8f8                ehci_dma_unmap_from
 .text.ehci_dma_unmap_to
                0x000000008000c8fc        0x4 /usr/local/xenon/usr/lib/libxenon.a(usb_os.o)
                0x000000008000c8fc                ehci_dma_unmap_to
 .text.ehci_usleep
                0x000000008000c900        0x4 /usr/local/xenon/usr/lib/libxenon.a(usb_os.o)
                0x000000008000c900                ehci_usleep
 .text.ehci_msleep
                0x000000008000c904        0x4 /usr/local/xenon/usr/lib/libxenon.a(usb_os.o)
                0x000000008000c904                ehci_msleep
 .text.USB_Alloc
                0x000000008000c908        0x4 /usr/local/xenon/usr/lib/libxenon.a(usb_os.o)
                0x000000008000c908                USB_Alloc
 .text.USB_Free
                0x000000008000c90c        0x4 /usr/local/xenon/usr/lib/libxenon.a(usb_os.o)
                0x000000008000c90c                USB_Free
 .text.xenon_gpio_set_oe
                0x000000008000c910       0x1c /usr/local/xenon/usr/lib/libxenon.a(xenon_gpio.o)
                0x000000008000c910                xenon_gpio_set_oe
 .text.xenon_gpio_set
                0x000000008000c92c       0x1c /usr/local/xenon/usr/lib/libxenon.a(xenon_gpio.o)
                0x000000008000c92c                xenon_gpio_set
 .text          0x000000008000c948       0x3c /usr/local/xenon/usr/lib/libxenon.a(cpusleep.o)
                0x000000008000c948                cpusleep
 .text.sfcx_readreg
                0x000000008000c984       0x10 /usr/local/xenon/usr/lib/libxenon.a(xenon_sfcx.o)
                0x000000008000c984                sfcx_readreg
 .text.sfcx_init
                0x000000008000c994      0x2dc /usr/local/xenon/usr/lib/libxenon.a(xenon_sfcx.o)
                0x000000008000c994                sfcx_init
 .text.q_enqueue
                0x000000008000cc70       0x18 /usr/local/xenon/usr/lib/libxenon.a(lib_queue.o)
                0x000000008000cc70                q_enqueue
 .text.q_deqnext
                0x000000008000cc88       0x30 /usr/local/xenon/usr/lib/libxenon.a(lib_queue.o)
                0x000000008000cc88                q_deqnext
 .text          0x000000008000ccb8       0x4c /usr/local/xenon/lib/gcc/xenon/6.3.0/32/libgcc.a(crtsavgpr.o)
                0x000000008000ccb8                _savegpr_14
                0x000000008000ccbc                _savegpr_15
                0x000000008000ccc0                _savegpr_16
                0x000000008000ccc4                _savegpr_17
                0x000000008000ccc8                _savegpr_18
                0x000000008000cccc                _savegpr_19
                0x000000008000ccd0                _savegpr_20
                0x000000008000ccd4                _savegpr_21
                0x000000008000ccd8                _savegpr_22
                0x000000008000ccdc                _savegpr_23
                0x000000008000cce0                _savegpr_24
                0x000000008000cce4                _savegpr_25
                0x000000008000cce8                _savegpr_26
                0x000000008000ccec                _savegpr_27
                0x000000008000ccf0                _savegpr_28
                0x000000008000ccf4                _savegpr_29
                0x000000008000ccf8                _savegpr_30
                0x000000008000ccfc                _savegpr_31
 .text          0x000000008000cd04       0x58 /usr/local/xenon/lib/gcc/xenon/6.3.0/32/libgcc.a(crtresxgpr.o)
                0x000000008000cd04                _restgpr_14_x
                0x000000008000cd08                _restgpr_15_x
                0x000000008000cd0c                _restgpr_16_x
                0x000000008000cd10                _restgpr_17_x
                0x000000008000cd14                _restgpr_18_x
                0x000000008000cd18                _restgpr_19_x
                0x000000008000cd1c                _restgpr_20_x
                0x000000008000cd20                _restgpr_21_x
                0x000000008000cd24                _restgpr_22_x
                0x000000008000cd28                _restgpr_23_x
                0x000000008000cd2c                _restgpr_24_x
                0x000000008000cd30                _restgpr_25_x
                0x000000008000cd34                _restgpr_26_x
                0x000000008000cd38                _restgpr_27_x
                0x000000008000cd3c                _restgpr_28_x
                0x000000008000cd40                _restgpr_29_x
                0x000000008000cd44                _restgpr_30_x
                0x000000008000cd48                _restgpr_31_x
 *fill*         0x000000008000cd5c        0x4 
 .text          0x000000008000cd60     0x1af8 /usr/local/xenon/lib/gcc/xenon/6.3.0/32/libgcc.a(unwind-dw2-fde-dip.o)
                0x000000008000e1ec                __register_frame_info_bases
                0x000000008000e264                __register_frame_info
                0x000000008000e2e4                __register_frame
                0x000000008000e36c                __register_frame_info_table_bases
                0x000000008000e3d4                __register_frame_info_table
                0x000000008000e43c                __register_frame_table
                0x000000008000e4bc                __deregister_frame_info_bases
                0x000000008000e618                __deregister_frame_info
                0x000000008000e630                __deregister_frame
                0x000000008000e66c                _Unwind_Find_FDE
 .text          0x000000008000e858       0x78 /usr/local/xenon/xenon/lib/32/libc.a(lib_a-assert.o)
                0x000000008000e858                __assert_func
                0x000000008000e8b8                __assert
 .text          0x000000008000e8d0       0x40 /usr/local/xenon/xenon/lib/32/libc.a(lib_a-exit.o)
                0x000000008000e8d0                exit
 .text          0x000000008000e910      0x158 /usr/local/xenon/xenon/lib/32/libc.a(lib_a-fclose.o)
                0x000000008000e910                _fclose_r
                0x000000008000ea58                fclose
 .text          0x000000008000ea68      0x37c /usr/local/xenon/xenon/lib/32/libc.a(lib_a-fflush.o)
                0x000000008000ea68                __sflush_r
                0x000000008000ed40                _fflush_r
                0x000000008000edb8                fflush
 *fill*         0x000000008000ede4        0x4 
 .text          0x000000008000ede8      0x3f4 /usr/local/xenon/xenon/lib/32/libc.a(lib_a-findfp.o)
                0x000000008000edf0                _cleanup_r
                0x000000008000efb0                __sfmoreglue
                0x000000008000f030                __sfp
                0x000000008000f168                _cleanup
                0x000000008000f180                __sinit
                0x000000008000f190                __sfp_lock_acquire
                0x000000008000f198                __sfp_lock_release
                0x000000008000f1a0                __sinit_lock_acquire
                0x000000008000f1a8                __sinit_lock_release
                0x000000008000f1b0                __fp_lock_all
                0x000000008000f1c8                __fp_unlock_all
 *fill*         0x000000008000f1dc        0x4 
 .text          0x000000008000f1e0      0x110 /usr/local/xenon/xenon/lib/32/libc.a(lib_a-fiprintf.o)
                0x000000008000f1e0                _fiprintf_r
                0x000000008000f260                fiprintf
 .text          0x000000008000f2f0      0x468 /usr/local/xenon/xenon/lib/32/libc.a(lib_a-freer.o)
                0x000000008000f2f0                _malloc_trim_r
                0x000000008000f430                _free_r
 .text          0x000000008000f758       0x80 /usr/local/xenon/xenon/lib/32/libc.a(lib_a-fstatr.o)
                0x000000008000f758                _fstat_r
 .text          0x000000008000f7d8      0x1d0 /usr/local/xenon/xenon/lib/32/libc.a(lib_a-fwalk.o)
                0x000000008000f7d8                _fwalk
                0x000000008000f8b8                _fwalk_reent
 .text          0x000000008000f9a8      0x11c /usr/local/xenon/xenon/lib/32/libc.a(lib_a-locale.o)
                0x000000008000f9a8                _setlocale_r
                0x000000008000fa48                __locale_mb_cur_max
                0x000000008000fa78                __locale_ctype_ptr_l
                0x000000008000fa80                __locale_ctype_ptr
                0x000000008000fab0                setlocale
 *fill*         0x000000008000fac4        0x4 
 .text          0x000000008000fac8      0x23c /usr/local/xenon/xenon/lib/32/libc.a(lib_a-makebuf.o)
                0x000000008000fac8                __swhatbuf_r
                0x000000008000fbb8                __smakebuf_r
 *fill*         0x000000008000fd04        0x4 
 .text          0x000000008000fd08       0x20 /usr/local/xenon/xenon/lib/32/libc.a(lib_a-malloc.o)
                0x000000008000fd08                malloc
                0x000000008000fd18                free
 .text          0x000000008000fd28      0x94c /usr/local/xenon/xenon/lib/32/libc.a(lib_a-mallocr.o)
                0x000000008000fd28                _malloc_r
 *fill*         0x0000000080010674        0x4 
 .text          0x0000000080010678       0xc0 /usr/local/xenon/xenon/lib/32/libc.a(lib_a-mbtowc_r.o)
                0x0000000080010678                _mbtowc_r
                0x00000000800106b0                __ascii_mbtowc
 .text          0x0000000080010738       0xa0 /usr/local/xenon/xenon/lib/32/libc.a(lib_a-memcmp.o)
                0x0000000080010738                memcmp
 .text          0x00000000800107d8      0x108 /usr/local/xenon/xenon/lib/32/libc.a(lib_a-memcpy.o)
                0x00000000800107d8                memcpy
 .text          0x00000000800108e0      0x110 /usr/local/xenon/xenon/lib/32/libc.a(lib_a-memset.o)
                0x00000000800108e0                memset
 .text          0x00000000800109f0      0x120 /usr/local/xenon/xenon/lib/32/libc.a(lib_a-printf.o)
                0x00000000800109f0                _printf_r
                0x0000000080010a78                printf
 .text          0x0000000080010b10       0x20 /usr/local/xenon/xenon/lib/32/libc.a(lib_a-putchar.o)
                0x0000000080010b10                _putchar_r
                0x0000000080010b18                putchar
 .text          0x0000000080010b30       0xe8 /usr/local/xenon/xenon/lib/32/libc.a(lib_a-puts.o)
                0x0000000080010b30                _puts_r
                0x0000000080010c08                puts
 .text          0x0000000080010c18       0x78 /usr/local/xenon/xenon/lib/32/libc.a(lib_a-sbrkr.o)
                0x0000000080010c18                _sbrk_r
 .text          0x0000000080010c90      0x18c /usr/local/xenon/xenon/lib/32/libc.a(lib_a-sprintf.o)
                0x0000000080010c90                _sprintf_r
                0x0000000080010d50                sprintf
 *fill*         0x0000000080010e1c        0x4 
 .text          0x0000000080010e20      0x184 /usr/local/xenon/xenon/lib/32/libc.a(lib_a-stdio.o)
                0x0000000080010e20                __sread
                0x0000000080010e88                __seofread
                0x0000000080010e90                __swrite
                0x0000000080010f28                __sseek
                0x0000000080010f98                __sclose
 *fill*         0x0000000080010fa4        0x4 
 .text          0x0000000080010fa8       0x98 /usr/local/xenon/xenon/lib/32/libc.a(lib_a-strcat.o)
                0x0000000080010fa8                strcat
 .text          0x0000000080011040       0xc0 /usr/local/xenon/xenon/lib/32/libc.a(lib_a-strcmp.o)
                0x0000000080011040                strcmp
 .text          0x0000000080011100       0x84 /usr/local/xenon/xenon/lib/32/libc.a(lib_a-strcpy.o)
                0x0000000080011100                strcpy
 *fill*         0x0000000080011184        0x4 
 .text          0x0000000080011188       0xb0 /usr/local/xenon/xenon/lib/32/libc.a(lib_a-strlen.o)
                0x0000000080011188                strlen
 .text          0x0000000080011238     0x221c /usr/local/xenon/xenon/lib/32/libc.a(lib_a-svfprintf.o)
                0x0000000080011238                _svfprintf_r
 *fill*         0x0000000080013454        0x4 
 .text          0x0000000080013458     0x16a8 /usr/local/xenon/xenon/lib/32/libc.a(lib_a-vfiprintf.o)
                0x00000000800135a0                __sprint_r
                0x00000000800135c0                _vfiprintf_r
                0x0000000080014a10                vfiprintf
 .text          0x0000000080014b00     0x2378 /usr/local/xenon/xenon/lib/32/libc.a(lib_a-vfprintf.o)
                0x0000000080014b00                _vfprintf_r
                0x0000000080016d88                vfprintf
 .text          0x0000000080016e78       0x78 /usr/local/xenon/xenon/lib/32/libc.a(lib_a-vsprintf.o)
                0x0000000080016e78                _vsprintf_r
                0x0000000080016ed8                vsprintf
 .text          0x0000000080016ef0       0x78 /usr/local/xenon/xenon/lib/32/libc.a(lib_a-wctomb_r.o)
                0x0000000080016ef0                _wctomb_r
                0x0000000080016f28                __ascii_wctomb
 .text          0x0000000080016f68       0x80 /usr/local/xenon/xenon/lib/32/libc.a(lib_a-writer.o)
                0x0000000080016f68                _write_r
 .text          0x0000000080016fe8      0x1b0 /usr/local/xenon/xenon/lib/32/libc.a(lib_a-wsetup.o)
                0x0000000080016fe8                __swsetup_r
 .text          0x0000000080017198      0x1e4 /usr/local/xenon/xenon/lib/32/libc.a(lib_a-__call_atexit.o)
                0x0000000080017198                __call_exitprocs
 *fill*         0x000000008001737c        0x4 
 .text          0x0000000080017380       0x78 /usr/local/xenon/xenon/lib/32/libc.a(lib_a-closer.o)
                0x0000000080017380                _close_r
 .text          0x00000000800173f8     0x1500 /usr/local/xenon/xenon/lib/32/libc.a(lib_a-dtoa.o)
                0x0000000080017650                _dtoa_r
 .text          0x00000000800188f8      0x254 /usr/local/xenon/xenon/lib/32/libc.a(lib_a-fputwc.o)
                0x00000000800188f8                __fputwc
                0x0000000080018a88                _fputwc_r
                0x0000000080018ab8                fputwc
 *fill*         0x0000000080018b4c        0x4 
 .text          0x0000000080018b50      0x5cc /usr/local/xenon/xenon/lib/32/libc.a(lib_a-fvwrite.o)
                0x0000000080018b50                __sfvwrite_r
 *fill*         0x000000008001911c        0x4 
 .text          0x0000000080019120       0x78 /usr/local/xenon/xenon/lib/32/libc.a(lib_a-isattyr.o)
                0x0000000080019120                _isatty_r
 .text          0x0000000080019198       0x68 /usr/local/xenon/xenon/lib/32/libc.a(lib_a-localeconv.o)
                0x0000000080019198                __localeconv_l
                0x00000000800191a0                _localeconv_r
                0x00000000800191d0                localeconv
 .text          0x0000000080019200       0x80 /usr/local/xenon/xenon/lib/32/libc.a(lib_a-lseekr.o)
                0x0000000080019200                _lseek_r
 .text          0x0000000080019280      0x100 /usr/local/xenon/xenon/lib/32/libc.a(lib_a-memchr.o)
                0x0000000080019280                memchr
 .text          0x0000000080019380      0x148 /usr/local/xenon/xenon/lib/32/libc.a(lib_a-memmove.o)
                0x0000000080019380                memmove
 .text          0x00000000800194c8     0x1350 /usr/local/xenon/xenon/lib/32/libc.a(lib_a-mprec.o)
                0x00000000800194c8                _Balloc
                0x0000000080019590                _Bfree
                0x00000000800195b8                __multadd
                0x00000000800196d8                __s2b
                0x0000000080019818                __hi0bits
                0x0000000080019898                __lo0bits
                0x0000000080019978                __i2b
                0x00000000800199b8                __multiply
                0x0000000080019c38                __pow5mult
                0x0000000080019db0                __lshift
                0x0000000080019f40                __mcmp
                0x0000000080019fa8                __mdiff
                0x000000008001a1e8                __ulp
                0x000000008001a288                __b2d
                0x000000008001a418                __d2b
                0x000000008001a5b0                __ratio
                0x000000008001a690                _mprec_log10
                0x000000008001a6d8                __copybits
                0x000000008001a770                __any_on
 .text          0x000000008001a818      0x16c /usr/local/xenon/xenon/lib/32/libc.a(lib_a-putc.o)
                0x000000008001a818                _putc_r
                0x000000008001a8c0                putc
 *fill*         0x000000008001a984        0x4 
 .text          0x000000008001a988       0x80 /usr/local/xenon/xenon/lib/32/libc.a(lib_a-readr.o)
                0x000000008001a988                _read_r
 .text          0x000000008001aa08      0x5d8 /usr/local/xenon/xenon/lib/32/libc.a(lib_a-reallocr.o)
                0x000000008001aa08                _realloc_r
 .text          0x000000008001afe0     0x1508 /usr/local/xenon/xenon/lib/32/libc.a(lib_a-svfiprintf.o)
                0x000000008001afe0                __ssprint_r
                0x000000008001b250                _svfiprintf_r
 .text          0x000000008001c4e8      0x1c4 /usr/local/xenon/xenon/lib/32/libc.a(lib_a-wbuf.o)
                0x000000008001c4e8                __swbuf_r
                0x000000008001c698                __swbuf
 *fill*         0x000000008001c6ac        0x4 
 .text          0x000000008001c6b0      0x18c /usr/local/xenon/xenon/lib/32/libc.a(lib_a-wcrtomb.o)
                0x000000008001c6b0                _wcrtomb_r
                0x000000008001c778                wcrtomb
 *fill*         0x000000008001c83c        0x4 
 .text          0x000000008001c840       0xc8 /usr/local/xenon/xenon/lib/32/libc.a(lib_a-callocr.o)
                0x000000008001c840                _calloc_r
 .text          0x000000008001c908      0x424 /usr/local/xenon/lib/gcc/xenon/6.3.0/32/libgcc.a(_udivdi3.o)
                0x000000008001c908                __udivdi3
 *fill*         0x000000008001cd2c        0x4 
 .text          0x000000008001cd30      0x3cc /usr/local/xenon/lib/gcc/xenon/6.3.0/32/libgcc.a(_umoddi3.o)
                0x000000008001cd30                __umoddi3

.glink          0x000000008001d0fc        0x0
 .glink         0x000000008001d0fc        0x0 /usr/local/xenon/lib/gcc/xenon/6.3.0/../../../../xenon/lib/../lib/crt1.o

.elfldr         0x000000008001d0fc        0x0
                0x000000008001d0fc                elfldr_start = .
 *(.elfldr)
                0x000000008001d0fc                elfldr_end = .

.data           0x000000008001d100     0x7f74
 *(.data*)
 .data.devoptab_list
                0x000000008001d100       0x40 /usr/local/xenon/usr/lib/libxenon.a(newlib.o)
                0x000000008001d100                devoptab_list
 .data.__syscalls
                0x000000008001d140       0x24 /usr/local/xenon/usr/lib/libxenon.a(xenon_syscalls.o)
                0x000000008001d140                __syscalls
 .data.lockowner
                0x000000008001d164        0x4 /usr/local/xenon/usr/lib/libxenon.a(xenon_syscalls.o)
 .data.usbctrl_driver
                0x000000008001d168        0xc /usr/local/xenon/usr/lib/libxenon.a(usbctrl.o)
                0x000000008001d168                usbctrl_driver
 .data.usb_drivers
                0x000000008001d174       0xa0 /usr/local/xenon/usr/lib/libxenon.a(usbdevs.o)
                0x000000008001d174                usb_drivers
 .data.usbhid_driver
                0x000000008001d214        0xc /usr/local/xenon/usr/lib/libxenon.a(usbhid.o)
                0x000000008001d214                usbhid_driver
 .data.usbhid_scantable
                0x000000008001d220      0x650 /usr/local/xenon/usr/lib/libxenon.a(usbhid.o)
 .data.usbhub_driver
                0x000000008001d870        0xc /usr/local/xenon/usr/lib/libxenon.a(usbhub.o)
                0x000000008001d870                usbhub_driver
 .data.usbroothub_driver
                0x000000008001d87c        0xc /usr/local/xenon/usr/lib/libxenon.a(usbhub.o)
                0x000000008001d87c                usbroothub_driver
 .data.ana_hdmi_720p
                0x000000008001d888      0x400 /usr/local/xenon/usr/lib/libxenon.a(xenos.o)
                0x000000008001d888                ana_hdmi_720p
 .data.ana_hdmi_720p_corona
                0x000000008001dc88      0x400 /usr/local/xenon/usr/lib/libxenon.a(xenos.o)
                0x000000008001dc88                ana_hdmi_720p_corona
 .data.ana_ntsc
                0x000000008001e088      0x400 /usr/local/xenon/usr/lib/libxenon.a(xenos.o)
                0x000000008001e088                ana_ntsc
 .data.ana_ntsc_corona
                0x000000008001e488      0x400 /usr/local/xenon/usr/lib/libxenon.a(xenos.o)
                0x000000008001e488                ana_ntsc_corona
 .data.ana_pal50
                0x000000008001e888      0x400 /usr/local/xenon/usr/lib/libxenon.a(xenos.o)
                0x000000008001e888                ana_pal50
 .data.ana_pal50_corona
                0x000000008001ec88      0x400 /usr/local/xenon/usr/lib/libxenon.a(xenos.o)
                0x000000008001ec88                ana_pal50_corona
 .data.ana_pal60
                0x000000008001f088      0x400 /usr/local/xenon/usr/lib/libxenon.a(xenos.o)
                0x000000008001f088                ana_pal60
 .data.ana_pal60_corona
                0x000000008001f488      0x400 /usr/local/xenon/usr/lib/libxenon.a(xenos.o)
                0x000000008001f488                ana_pal60_corona
 .data.ana_vga_1024x768
                0x000000008001f888      0x400 /usr/local/xenon/usr/lib/libxenon.a(xenos.o)
                0x000000008001f888                ana_vga_1024x768
 .data.ana_vga_1024x768_corona
                0x000000008001fc88      0x400 /usr/local/xenon/usr/lib/libxenon.a(xenos.o)
                0x000000008001fc88                ana_vga_1024x768_corona
 .data.ana_vga_1280x1024
                0x0000000080020088      0x400 /usr/local/xenon/usr/lib/libxenon.a(xenos.o)
                0x0000000080020088                ana_vga_1280x1024
 .data.ana_vga_1280x1024_corona
                0x0000000080020488      0x400 /usr/local/xenon/usr/lib/libxenon.a(xenos.o)
                0x0000000080020488                ana_vga_1280x1024_corona
 .data.ana_vga_1280x720
                0x0000000080020888      0x400 /usr/local/xenon/usr/lib/libxenon.a(xenos.o)
                0x0000000080020888                ana_vga_1280x720
 .data.ana_vga_1280x720_corona
                0x0000000080020c88      0x400 /usr/local/xenon/usr/lib/libxenon.a(xenos.o)
                0x0000000080020c88                ana_vga_1280x720_corona
 .data.ana_vga_1280x768
                0x0000000080021088      0x400 /usr/local/xenon/usr/lib/libxenon.a(xenos.o)
                0x0000000080021088                ana_vga_1280x768
 .data.ana_vga_1280x768_corona
                0x0000000080021488      0x400 /usr/local/xenon/usr/lib/libxenon.a(xenos.o)
                0x0000000080021488                ana_vga_1280x768_corona
 .data.ana_vga_1360x768
                0x0000000080021888      0x400 /usr/local/xenon/usr/lib/libxenon.a(xenos.o)
                0x0000000080021888                ana_vga_1360x768
 .data.ana_vga_1360x768_corona
                0x0000000080021c88      0x400 /usr/local/xenon/usr/lib/libxenon.a(xenos.o)
                0x0000000080021c88                ana_vga_1360x768_corona
 .data.ana_vga_1440x900
                0x0000000080022088      0x400 /usr/local/xenon/usr/lib/libxenon.a(xenos.o)
                0x0000000080022088                ana_vga_1440x900
 .data.ana_vga_1440x900_corona
                0x0000000080022488      0x400 /usr/local/xenon/usr/lib/libxenon.a(xenos.o)
                0x0000000080022488                ana_vga_1440x900_corona
 .data.ana_vga_640x480
                0x0000000080022888      0x400 /usr/local/xenon/usr/lib/libxenon.a(xenos.o)
                0x0000000080022888                ana_vga_640x480
 .data.ana_vga_640x480_corona
                0x0000000080022c88      0x400 /usr/local/xenon/usr/lib/libxenon.a(xenos.o)
                0x0000000080022c88                ana_vga_640x480_corona
 .data.ana_yuv_480p
                0x0000000080023088      0x400 /usr/local/xenon/usr/lib/libxenon.a(xenos.o)
                0x0000000080023088                ana_yuv_480p
 .data.ana_yuv_480p_corona
                0x0000000080023488      0x400 /usr/local/xenon/usr/lib/libxenon.a(xenos.o)
                0x0000000080023488                ana_yuv_480p_corona
 .data.ana_yuv_720p
                0x0000000080023888      0x400 /usr/local/xenon/usr/lib/libxenon.a(xenos.o)
                0x0000000080023888                ana_yuv_720p
 .data.ana_yuv_720p_corona
                0x0000000080023c88      0x400 /usr/local/xenon/usr/lib/libxenon.a(xenos.o)
                0x0000000080023c88                ana_yuv_720p_corona
 .data.xenos_modes
                0x0000000080024088      0x30c /usr/local/xenon/usr/lib/libxenon.a(xenos.o)
                0x0000000080024088                xenos_modes
 .data.xenos_modes_corona
                0x0000000080024394      0x30c /usr/local/xenon/usr/lib/libxenon.a(xenos.o)
                0x0000000080024394                xenos_modes_corona
 .data.dummy_driver
                0x00000000800246a0        0xc /usr/local/xenon/usr/lib/libxenon.a(dummy.o)
                0x00000000800246a0                dummy_driver
 .data.ohci_driver
                0x00000000800246ac       0x2c /usr/local/xenon/usr/lib/libxenon.a(ohci.o)
                0x00000000800246ac                ohci_driver
 .data          0x00000000800246d8      0x428 /usr/local/xenon/xenon/lib/32/libc.a(lib_a-impure.o)
 .data          0x0000000080024b00      0x16c /usr/local/xenon/xenon/lib/32/libc.a(lib_a-locale.o)
                0x0000000080024b00                __global_locale
 .data          0x0000000080024c6c      0x408 /usr/local/xenon/xenon/lib/32/libc.a(lib_a-mallocr.o)
                0x0000000080024c6c                __malloc_av_

.got2           0x0000000080025074       0x14
 .got2          0x0000000080025074       0x14 /usr/local/xenon/lib/gcc/xenon/6.3.0/32/libgcc.a(unwind-dw2-fde-dip.o)

.sdata          0x0000000080025088       0x24
 *(.sdata*)
 .sdata         0x0000000080025088        0x0 /usr/local/xenon/lib/gcc/xenon/6.3.0/../../../../xenon/lib/../lib/crt1.o
                0x000000008002d088                _SDA_BASE_
 .sdata2        0x0000000080025088        0x0 /usr/local/xenon/lib/gcc/xenon/6.3.0/../../../../xenon/lib/../lib/crt1.o
                0x000000008002d088                _SDA2_BASE_
 .sdata         0x0000000080025088        0x4 /usr/local/xenon/usr/lib/libxenon.a(startup_from_xell.o)
                0x0000000080025088                __system_argv
 .sdata.console_color
                0x000000008002508c        0x8 /usr/local/xenon/usr/lib/libxenon.a(console.o)
                0x000000008002508c                console_color
 .sdata.usb_timeout
                0x0000000080025094        0x4 /usr/local/xenon/usr/lib/libxenon.a(tinyehci.o)
                0x0000000080025094                usb_timeout
 .sdata.xenon_smc_last_ir
                0x0000000080025098        0x4 /usr/local/xenon/usr/lib/libxenon.a(xenon_smc.o)
                0x0000000080025098                xenon_smc_last_ir
 .sdata         0x000000008002509c        0x8 /usr/local/xenon/xenon/lib/32/libc.a(lib_a-impure.o)
                0x000000008002509c                _global_impure_ptr
                0x00000000800250a0                _impure_ptr
 .sdata         0x00000000800250a4        0x8 /usr/local/xenon/xenon/lib/32/libc.a(lib_a-mallocr.o)
                0x00000000800250a4                __malloc_sbrk_base
                0x00000000800250a8                __malloc_trim_threshold

.rodata         0x00000000800250b0     0x330c
 *(.rodata*)
 .rodata.getTemp.cst4
                0x00000000800250b0        0x4 main.o
 *fill*         0x00000000800250b4        0x4 
 .rodata.getTemp.str1.8
                0x00000000800250b8       0x3b main.o
 *fill*         0x00000000800250f3        0x1 
 .rodata.main.cst4
                0x00000000800250f4        0x4 main.o
 .rodata.main.str1.8
                0x00000000800250f8       0xd8 main.o
                                         0xd2 (size before relaxing)
 .rodata.console_init.str1.1
                0x00000000800251d0       0x33 /usr/local/xenon/usr/lib/libxenon.a(console.o)
 *fill*         0x0000000080025203        0x5 
 .rodata.fontdata_8x16
                0x0000000080025208     0x1000 /usr/local/xenon/usr/lib/libxenon.a(console.o)
                0x0000000080025208                fontdata_8x16
 .rodata.AddDevice.str1.1
                0x0000000080026208        0x8 /usr/local/xenon/usr/lib/libxenon.a(newlib.o)
 .rodata.abort.str1.1
                0x0000000080026210        0xf /usr/local/xenon/usr/lib/libxenon.a(newlib.o)
 *fill*         0x000000008002621f        0x1 
 .rodata.console_optab
                0x0000000080026220       0x64 /usr/local/xenon/usr/lib/libxenon.a(newlib.o)
                0x0000000080026220                console_optab
 .rodata.dotab_stdnull
                0x0000000080026284       0x64 /usr/local/xenon/usr/lib/libxenon.a(newlib.o)
                0x0000000080026284                dotab_stdnull
 .rodata.str1.1
                0x00000000800262e8        0x7 /usr/local/xenon/usr/lib/libxenon.a(newlib.o)
 *fill*         0x00000000800262ef        0x1 
 .rodata.__func__.4659
                0x00000000800262f0       0x12 /usr/local/xenon/usr/lib/libxenon.a(xenon_syscalls.o)
 *fill*         0x0000000080026302        0x6 
 .rodata.__func__.4665
                0x0000000080026308       0x14 /usr/local/xenon/usr/lib/libxenon.a(xenon_syscalls.o)
 .rodata.try_return_to_xell.str1.1
                0x000000008002631c       0x11 /usr/local/xenon/usr/lib/libxenon.a(xenon_syscalls.o)
 .rodata.xenon_exit.str1.1
                0x000000008002632d       0x63 /usr/local/xenon/usr/lib/libxenon.a(xenon_syscalls.o)
 .rodata.xenon_malloc_lock.str1.1
                0x0000000080026390        0x9 /usr/local/xenon/usr/lib/libxenon.a(xenon_syscalls.o)
 .rodata.xenon_malloc_unlock.str1.1
                0x0000000080026399       0x40 /usr/local/xenon/usr/lib/libxenon.a(xenon_syscalls.o)
 .rodata.kmem_init.str1.1
                0x00000000800263d9       0x35 /usr/local/xenon/usr/lib/libxenon.a(lib_malloc.o)
 .rodata.lib_outofmemory.str1.1
                0x000000008002640e       0x16 /usr/local/xenon/usr/lib/libxenon.a(lib_malloc.o)
 .rodata.crashdump.str1.1
                0x0000000080026424       0xec /usr/local/xenon/usr/lib/libxenon.a(c_except.o)
                                         0xf0 (size before relaxing)
 .rodata.str1.1
                0x0000000080026510       0x14 /usr/local/xenon/usr/lib/libxenon.a(usbctrl.o)
 .rodata.usbctrl_attach.str1.1
                0x0000000080026524       0x5f /usr/local/xenon/usr/lib/libxenon.a(usbctrl.o)
 .rodata.usbctrl_detach.str1.1
                0x0000000080026583       0x42 /usr/local/xenon/usr/lib/libxenon.a(usbctrl.o)
 .rodata.usbctrl_set_leds.str1.1
                0x00000000800265c5       0x16 /usr/local/xenon/usr/lib/libxenon.a(usbctrl.o)
 .rodata.usb_create_pipe.str1.1
                0x00000000800265db       0x32 /usr/local/xenon/usr/lib/libxenon.a(usbd.o)
 .rodata.usb_free_request.str1.1
                0x000000008002660d       0x34 /usr/local/xenon/usr/lib/libxenon.a(usbd.o)
 .rodata.usb_initroot.str1.1
                0x0000000080026641       0x73 /usr/local/xenon/usr/lib/libxenon.a(usbd.o)
 .rodata.usb_find_driver.str1.1
                0x00000000800266b4       0x5a /usr/local/xenon/usr/lib/libxenon.a(usbdevs.o)
 .rodata.str1.1
                0x000000008002670e       0x2e /usr/local/xenon/usr/lib/libxenon.a(usbhid.o)
 .rodata.usbhid_attach.str1.1
                0x000000008002673c       0x19 /usr/local/xenon/usr/lib/libxenon.a(usbhid.o)
 *fill*         0x0000000080026755        0x3 
 .rodata.usbhid_devtypes
                0x0000000080026758        0xc /usr/local/xenon/usr/lib/libxenon.a(usbhid.o)
 .rodata.usbhid_ireq_callback.str1.1
                0x0000000080026764        0x3 /usr/local/xenon/usr/lib/libxenon.a(usbhid.o)
 .rodata.str1.1
                0x0000000080026767       0x11 /usr/local/xenon/usr/lib/libxenon.a(usbhub.o)
 .rodata.usbhub_detach.str1.1
                0x0000000080026778       0x76 /usr/local/xenon/usr/lib/libxenon.a(usbhub.o)
 .rodata.usbhub_scan1.str1.1
                0x00000000800267ee      0x176 /usr/local/xenon/usr/lib/libxenon.a(usbhub.o)
 .rodata.usb_init.str1.1
                0x0000000080026964       0x5a /usr/local/xenon/usr/lib/libxenon.a(usbmain.o)
 .rodata.usb_init_one_ohci.str1.1
                0x00000000800269be       0x75 /usr/local/xenon/usr/lib/libxenon.a(usbmain.o)
 .rodata.EHCI_do_one.str1.1
                0x0000000080026a33       0x20 /usr/local/xenon/usr/lib/libxenon.a(tinyehci.o)
 .rodata.USBStorage_Init.str1.1
                0x0000000080026a53       0x47 /usr/local/xenon/usr/lib/libxenon.a(tinyehci.o)
 .rodata.ehci_reset_usb_port.str1.1
                0x0000000080026a9a       0x33 /usr/local/xenon/usr/lib/libxenon.a(tinyehci.o)
 .rodata.xenon_smc_ana_read.str1.1
                0x0000000080026acd       0x2e /usr/local/xenon/usr/lib/libxenon.a(xenon_smc.o)
 .rodata.xenon_smc_ana_write.str1.1
                0x0000000080026afb       0x2f /usr/local/xenon/usr/lib/libxenon.a(xenon_smc.o)
 .rodata.xenon_smc_handle_bulk.str1.1
                0x0000000080026b2a       0x46 /usr/local/xenon/usr/lib/libxenon.a(xenon_smc.o)
 .rodata.xenon_smc_i2c_ddc_lock.str1.1
                0x0000000080026b70       0x27 /usr/local/xenon/usr/lib/libxenon.a(xenon_smc.o)
 .rodata.xenon_smc_i2c_read.str1.1
                0x0000000080026b97       0x2e /usr/local/xenon/usr/lib/libxenon.a(xenon_smc.o)
 .rodata.xenon_smc_i2c_write.str1.1
                0x0000000080026bc5       0x2f /usr/local/xenon/usr/lib/libxenon.a(xenon_smc.o)
 .rodata.xenon_make_it_faster.str1.1
                0x0000000080026bf4      0x10a /usr/local/xenon/usr/lib/libxenon.a(xenon_power.o)
 .rodata.xenon_set_speed.str1.1
                0x0000000080026cfe       0x44 /usr/local/xenon/usr/lib/libxenon.a(xenon_power.o)
 .rodata.xenon_config_get_avregion.str1.1
                0x0000000080026d42       0x20 /usr/local/xenon/usr/lib/libxenon.a(xenon_config.o)
 .rodata.xenon_config_init.str1.1
                0x0000000080026d62       0x20 /usr/local/xenon/usr/lib/libxenon.a(xenon_config.o)
 *fill*         0x0000000080026d82        0x2 
 .rodata        0x0000000080026d84      0x140 /usr/local/xenon/usr/lib/libxenon.a(xenos.o)
 *fill*         0x0000000080026ec4        0x4 
 .rodata.CSWTCH.44
                0x0000000080026ec8        0x4 /usr/local/xenon/usr/lib/libxenon.a(xenos.o)
 *fill*         0x0000000080026ecc        0x4 
 .rodata.__func__.4400
                0x0000000080026ed0       0x12 /usr/local/xenon/usr/lib/libxenon.a(xenos.o)
 .rodata.str1.1
                0x0000000080026ee2       0x94 /usr/local/xenon/usr/lib/libxenon.a(xenos.o)
 .rodata.xenos_ana_write.str1.1
                0x0000000080026f76       0x33 /usr/local/xenon/usr/lib/libxenon.a(xenos.o)
 .rodata.xenos_autoset_mode.str1.1
                0x0000000080026fa9       0x17 /usr/local/xenon/usr/lib/libxenon.a(xenos.o)
 .rodata.xenos_init.str1.1
                0x0000000080026fc0       0x57 /usr/local/xenon/usr/lib/libxenon.a(xenos.o)
 .rodata.xenos_init_ana_new.str1.1
                0x0000000080027017       0xf5 /usr/local/xenon/usr/lib/libxenon.a(xenos.o)
 .rodata.xenos_init_phase1.str1.1
                0x000000008002710c       0x85 /usr/local/xenon/usr/lib/libxenon.a(xenos.o)
 .rodata.xenos_is_overscan.str1.1
                0x0000000080027191       0x16 /usr/local/xenon/usr/lib/libxenon.a(xenos.o)
 .rodata.xenos_set_mode.str1.1
                0x00000000800271a7       0x29 /usr/local/xenon/usr/lib/libxenon.a(xenos.o)
 .rodata.edid_header
                0x00000000800271d0        0x8 /usr/local/xenon/usr/lib/libxenon.a(xenos_edid.o)
 .rodata.xenos_ddc_read_edid.str1.1
                0x00000000800271d8       0xa5 /usr/local/xenon/usr/lib/libxenon.a(xenos_edid.o)
 .rodata.xenos_get_edid.str1.1
                0x000000008002727d       0x61 /usr/local/xenon/usr/lib/libxenon.a(xenos_edid.o)
 .rodata.str1.1
                0x00000000800272de        0xd /usr/local/xenon/usr/lib/libxenon.a(dummy.o)
 *fill*         0x00000000800272eb        0x1 
 .rodata.ohci_xfer
                0x00000000800272ec       0x50 /usr/local/xenon/usr/lib/libxenon.a(ohci.o)
 .rodata.ohci_revbits
                0x000000008002733c       0x80 /usr/local/xenon/usr/lib/libxenon.a(ohci.o)
 .rodata.ohci_root_cfgdsc
                0x00000000800273bc        0x9 /usr/local/xenon/usr/lib/libxenon.a(ohci.o)
 .rodata.ohci_root_devdsc
                0x00000000800273c5       0x12 /usr/local/xenon/usr/lib/libxenon.a(ohci.o)
 .rodata.ohci_root_epdsc
                0x00000000800273d7        0x7 /usr/local/xenon/usr/lib/libxenon.a(ohci.o)
 .rodata.ohci_root_hubdsc
                0x00000000800273de       0x47 /usr/local/xenon/usr/lib/libxenon.a(ohci.o)
 .rodata.ohci_root_ifdsc
                0x0000000080027425        0x9 /usr/local/xenon/usr/lib/libxenon.a(ohci.o)
 .rodata.ohci_xfer.str1.1
                0x000000008002742e        0x8 /usr/local/xenon/usr/lib/libxenon.a(ohci.o)
                                         0x11 (size before relaxing)
 *fill*         0x0000000080027436        0x2 
 .rodata.eptattribs.4047
                0x0000000080027438       0x10 /usr/local/xenon/usr/lib/libxenon.a(usbdebug.o)
 .rodata.getstringmaybe.str1.1
                0x0000000080027448        0x8 /usr/local/xenon/usr/lib/libxenon.a(usbdebug.o)
                                          0x1 (size before relaxing)
 .rodata.str1.1
                0x0000000080027448       0x1c /usr/local/xenon/usr/lib/libxenon.a(usbdebug.o)
 .rodata.usb_dbg_dumpdescriptors.str1.1
                0x0000000080027464      0x4a8 /usr/local/xenon/usr/lib/libxenon.a(usbdebug.o)
 .rodata.usb_dbg_dumpportstatus.str1.1
                0x000000008002790c       0xd8 /usr/local/xenon/usr/lib/libxenon.a(usbdebug.o)
                                         0xdb (size before relaxing)
 .rodata.sfcx_init.str1.1
                0x00000000800279e4       0x7e /usr/local/xenon/usr/lib/libxenon.a(xenon_sfcx.o)
 *fill*         0x0000000080027a62        0x2 
 .rodata        0x0000000080027a64       0x34 /usr/local/xenon/lib/gcc/xenon/6.3.0/32/libgcc.a(unwind-dw2-fde-dip.o)
 .rodata.str1.4
                0x0000000080027a98       0x3f /usr/local/xenon/xenon/lib/32/libc.a(lib_a-assert.o)
                                         0x43 (size before relaxing)
 *fill*         0x0000000080027ad7        0x1 
 .rodata.str1.4
                0x0000000080027ad8        0xe /usr/local/xenon/xenon/lib/32/libc.a(lib_a-locale.o)
                                         0x12 (size before relaxing)
 *fill*         0x0000000080027ae6        0x2 
 .rodata.str1.4
                0x0000000080027ae8        0x2 /usr/local/xenon/xenon/lib/32/libc.a(lib_a-puts.o)
 *fill*         0x0000000080027aea        0x2 
 .rodata        0x0000000080027aec      0x184 /usr/local/xenon/xenon/lib/32/libc.a(lib_a-svfprintf.o)
 .rodata.cst4   0x0000000080027c70        0x4 /usr/local/xenon/xenon/lib/32/libc.a(lib_a-svfprintf.o)
 .rodata.cst8   0x0000000080027c70        0x8 /usr/local/xenon/xenon/lib/32/libc.a(lib_a-svfprintf.o)
 .rodata.str1.4
                0x0000000080027c78       0x42 /usr/local/xenon/xenon/lib/32/libc.a(lib_a-svfprintf.o)
 *fill*         0x0000000080027cba        0x2 
 .rodata        0x0000000080027cbc      0x184 /usr/local/xenon/xenon/lib/32/libc.a(lib_a-vfiprintf.o)
 .rodata.cst4   0x0000000080027e40        0x8 /usr/local/xenon/xenon/lib/32/libc.a(lib_a-vfiprintf.o)
 .rodata.str1.4
                0x0000000080027e48       0x2f /usr/local/xenon/xenon/lib/32/libc.a(lib_a-vfiprintf.o)
 .rodata        0x0000000080027e48      0x184 /usr/local/xenon/xenon/lib/32/libc.a(lib_a-vfprintf.o)
 .rodata.cst4   0x0000000080027fcc        0x4 /usr/local/xenon/xenon/lib/32/libc.a(lib_a-vfprintf.o)
 .rodata.cst8   0x0000000080027fcc        0x8 /usr/local/xenon/xenon/lib/32/libc.a(lib_a-vfprintf.o)
 .rodata.str1.4
                0x0000000080027fcc       0x42 /usr/local/xenon/xenon/lib/32/libc.a(lib_a-vfprintf.o)
 .rodata        0x0000000080027fcc      0x101 /usr/local/xenon/xenon/lib/32/libc.a(lib_a-ctype_.o)
                0x0000000080027fcc                _ctype_
 *fill*         0x00000000800280cd        0x3 
 .rodata.cst4   0x00000000800280d0       0x18 /usr/local/xenon/xenon/lib/32/libc.a(lib_a-dtoa.o)
                                         0x1c (size before relaxing)
 .rodata.cst8   0x00000000800280e8       0x18 /usr/local/xenon/xenon/lib/32/libc.a(lib_a-dtoa.o)
 .rodata.str1.4
                0x0000000080028100       0x10 /usr/local/xenon/xenon/lib/32/libc.a(lib_a-dtoa.o)
                                         0x12 (size before relaxing)
 .rodata        0x0000000080028110      0x128 /usr/local/xenon/xenon/lib/32/libc.a(lib_a-mprec.o)
                0x0000000080028120                __mprec_tens
                0x00000000800281e8                __mprec_tinytens
                0x0000000080028210                __mprec_bigtens
 .rodata.cst4   0x0000000080028238        0x8 /usr/local/xenon/xenon/lib/32/libc.a(lib_a-mprec.o)
 .rodata        0x0000000080028238      0x184 /usr/local/xenon/xenon/lib/32/libc.a(lib_a-svfiprintf.o)
 .rodata.str1.4
                0x00000000800283bc       0x2f /usr/local/xenon/xenon/lib/32/libc.a(lib_a-svfiprintf.o)

.ctors          0x00000000800283bc        0x0
                0x00000000800283bc                __CTOR_LIST__ = .
 *(.ctors)
                0x00000000800283bc                __CTOR_END__ = .

.dtors          0x00000000800283bc        0x0
                0x00000000800283bc                __DTOR_LIST__ = .
 *(.dtors)
                0x00000000800283bc                __DTOR_END__ = .

.eh_frame_hdr   0x00000000800283bc       0xe4
 *(.eh_frame_hdr)
 .eh_frame_hdr  0x00000000800283bc       0xe4 /usr/local/xenon/lib/gcc/xenon/6.3.0/32/libgcc.a(crtsavgpr.o)
                0x00000000800283bc                __GNU_EH_FRAME_HDR

.eh_frame       0x00000000800284a0      0x5e8
                0x00000000800284a0                PROVIDE (__eh_frame_start, .)
 *(.eh_frame)
 .eh_frame      0x00000000800284a0        0x0 /usr/local/xenon/lib/gcc/xenon/6.3.0/../../../../xenon/lib/../lib/crt1.o
 .eh_frame      0x00000000800284a0       0x28 /usr/local/xenon/lib/gcc/xenon/6.3.0/32/libgcc.a(crtsavgpr.o)
 .eh_frame      0x00000000800284c8       0x7c /usr/local/xenon/lib/gcc/xenon/6.3.0/32/libgcc.a(crtresxgpr.o)
 .eh_frame      0x0000000080028544      0x4b8 /usr/local/xenon/lib/gcc/xenon/6.3.0/32/libgcc.a(unwind-dw2-fde-dip.o)
                                        0x4cc (size before relaxing)
 .eh_frame      0x00000000800289fc       0x40 /usr/local/xenon/lib/gcc/xenon/6.3.0/32/libgcc.a(_udivdi3.o)
                                         0x54 (size before relaxing)
 .eh_frame      0x0000000080028a3c       0x44 /usr/local/xenon/lib/gcc/xenon/6.3.0/32/libgcc.a(_umoddi3.o)
                                         0x58 (size before relaxing)
 .eh_frame      0x0000000080028a80        0x4 /usr/local/xenon/lib/gcc/xenon/6.3.0/32/crtend.o
                0x0000000080028a84        0x4 LONG 0x0

.rela.dyn       0x0000000080028a88        0x0
 .rela.iplt     0x0000000080028a88        0x0 /usr/local/xenon/lib/gcc/xenon/6.3.0/../../../../xenon/lib/../lib/crt1.o
 .rela.text.call_ctors
                0x0000000080028a88        0x0 /usr/local/xenon/lib/gcc/xenon/6.3.0/../../../../xenon/lib/../lib/crt1.o
 .rela.text.c_register_frame
                0x0000000080028a88        0x0 /usr/local/xenon/lib/gcc/xenon/6.3.0/../../../../xenon/lib/../lib/crt1.o
 .rela.text.__crtmain
                0x0000000080028a88        0x0 /usr/local/xenon/lib/gcc/xenon/6.3.0/../../../../xenon/lib/../lib/crt1.o
 .rela.text     0x0000000080028a88        0x0 /usr/local/xenon/lib/gcc/xenon/6.3.0/../../../../xenon/lib/../lib/crt1.o
 .rela.text.__check_argv
                0x0000000080028a88        0x0 /usr/local/xenon/lib/gcc/xenon/6.3.0/../../../../xenon/lib/../lib/crt1.o
 .rela.text.console_init
                0x0000000080028a88        0x0 /usr/local/xenon/lib/gcc/xenon/6.3.0/../../../../xenon/lib/../lib/crt1.o
 .rela.text.console_close
                0x0000000080028a88        0x0 /usr/local/xenon/lib/gcc/xenon/6.3.0/../../../../xenon/lib/../lib/crt1.o
 .rela.text.__dirreset
                0x0000000080028a88        0x0 /usr/local/xenon/lib/gcc/xenon/6.3.0/../../../../xenon/lib/../lib/crt1.o
 .rela.text.__dirnext
                0x0000000080028a88        0x0 /usr/local/xenon/lib/gcc/xenon/6.3.0/../../../../xenon/lib/../lib/crt1.o
 .rela.text.__libc_lock_init
                0x0000000080028a88        0x0 /usr/local/xenon/lib/gcc/xenon/6.3.0/../../../../xenon/lib/../lib/crt1.o
 .rela.text.__libc_lock_close
                0x0000000080028a88        0x0 /usr/local/xenon/lib/gcc/xenon/6.3.0/../../../../xenon/lib/../lib/crt1.o
 .rela.text.__libc_lock_release
                0x0000000080028a88        0x0 /usr/local/xenon/lib/gcc/xenon/6.3.0/../../../../xenon/lib/../lib/crt1.o
 .rela.text.__libc_lock_acquire
                0x0000000080028a88        0x0 /usr/local/xenon/lib/gcc/xenon/6.3.0/../../../../xenon/lib/../lib/crt1.o
 .rela.text.__malloc_lock
                0x0000000080028a88        0x0 /usr/local/xenon/lib/gcc/xenon/6.3.0/../../../../xenon/lib/../lib/crt1.o
 .rela.text.__malloc_unlock
                0x0000000080028a88        0x0 /usr/local/xenon/lib/gcc/xenon/6.3.0/../../../../xenon/lib/../lib/crt1.o
 .rela.text._exit
                0x0000000080028a88        0x0 /usr/local/xenon/lib/gcc/xenon/6.3.0/../../../../xenon/lib/../lib/crt1.o
 .rela.text.sbrk
                0x0000000080028a88        0x0 /usr/local/xenon/lib/gcc/xenon/6.3.0/../../../../xenon/lib/../lib/crt1.o
 .rela.text.execve
                0x0000000080028a88        0x0 /usr/local/xenon/lib/gcc/xenon/6.3.0/../../../../xenon/lib/../lib/crt1.o
 .rela.text.execv
                0x0000000080028a88        0x0 /usr/local/xenon/lib/gcc/xenon/6.3.0/../../../../xenon/lib/../lib/crt1.o
 .rela.text.execvp
                0x0000000080028a88        0x0 /usr/local/xenon/lib/gcc/xenon/6.3.0/../../../../xenon/lib/../lib/crt1.o
 .rela.text.fork
                0x0000000080028a88        0x0 /usr/local/xenon/lib/gcc/xenon/6.3.0/../../../../xenon/lib/../lib/crt1.o
 .rela.text.getpid
                0x0000000080028a88        0x0 /usr/local/xenon/lib/gcc/xenon/6.3.0/../../../../xenon/lib/../lib/crt1.o
 .rela.text.getrusage
                0x0000000080028a88        0x0 /usr/local/xenon/lib/gcc/xenon/6.3.0/../../../../xenon/lib/../lib/crt1.o
 .rela.text.gettimeofday
                0x0000000080028a88        0x0 /usr/local/xenon/lib/gcc/xenon/6.3.0/../../../../xenon/lib/../lib/crt1.o
 .rela.text.kill
                0x0000000080028a88        0x0 /usr/local/xenon/lib/gcc/xenon/6.3.0/../../../../xenon/lib/../lib/crt1.o
 .rela.text.open
                0x0000000080028a88        0x0 /usr/local/xenon/lib/gcc/xenon/6.3.0/../../../../xenon/lib/../lib/crt1.o
 .rela.text.read
                0x0000000080028a88        0x0 /usr/local/xenon/lib/gcc/xenon/6.3.0/../../../../xenon/lib/../lib/crt1.o
 .rela.text.write
                0x0000000080028a88        0x0 /usr/local/xenon/lib/gcc/xenon/6.3.0/../../../../xenon/lib/../lib/crt1.o
 .rela.text.fstat
                0x0000000080028a88        0x0 /usr/local/xenon/lib/gcc/xenon/6.3.0/../../../../xenon/lib/../lib/crt1.o
 .rela.text.stat
                0x0000000080028a88        0x0 /usr/local/xenon/lib/gcc/xenon/6.3.0/../../../../xenon/lib/../lib/crt1.o
 .rela.text.statvfs
                0x0000000080028a88        0x0 /usr/local/xenon/lib/gcc/xenon/6.3.0/../../../../xenon/lib/../lib/crt1.o
 .rela.text.fsync
                0x0000000080028a88        0x0 /usr/local/xenon/lib/gcc/xenon/6.3.0/../../../../xenon/lib/../lib/crt1.o
 .rela.text.ftruncate
                0x0000000080028a88        0x0 /usr/local/xenon/lib/gcc/xenon/6.3.0/../../../../xenon/lib/../lib/crt1.o
 .rela.text.link
                0x0000000080028a88        0x0 /usr/local/xenon/lib/gcc/xenon/6.3.0/../../../../xenon/lib/../lib/crt1.o
 .rela.text.lseek
                0x0000000080028a88        0x0 /usr/local/xenon/lib/gcc/xenon/6.3.0/../../../../xenon/lib/../lib/crt1.o
 .rela.text.rename
                0x0000000080028a88        0x0 /usr/local/xenon/lib/gcc/xenon/6.3.0/../../../../xenon/lib/../lib/crt1.o
 .rela.text.unlink
                0x0000000080028a88        0x0 /usr/local/xenon/lib/gcc/xenon/6.3.0/../../../../xenon/lib/../lib/crt1.o
 .rela.text.close
                0x0000000080028a88        0x0 /usr/local/xenon/lib/gcc/xenon/6.3.0/../../../../xenon/lib/../lib/crt1.o
 .rela.text.chdir
                0x0000000080028a88        0x0 /usr/local/xenon/lib/gcc/xenon/6.3.0/../../../../xenon/lib/../lib/crt1.o
 .rela.text.getcwd
                0x0000000080028a88        0x0 /usr/local/xenon/lib/gcc/xenon/6.3.0/../../../../xenon/lib/../lib/crt1.o
 .rela.text.chmod
                0x0000000080028a88        0x0 /usr/local/xenon/lib/gcc/xenon/6.3.0/../../../../xenon/lib/../lib/crt1.o
 .rela.text.fchmod
                0x0000000080028a88        0x0 /usr/local/xenon/lib/gcc/xenon/6.3.0/../../../../xenon/lib/../lib/crt1.o
 .rela.text.opendir
                0x0000000080028a88        0x0 /usr/local/xenon/lib/gcc/xenon/6.3.0/../../../../xenon/lib/../lib/crt1.o
 .rela.text.closedir
                0x0000000080028a88        0x0 /usr/local/xenon/lib/gcc/xenon/6.3.0/../../../../xenon/lib/../lib/crt1.o
 .rela.text.mkdir
                0x0000000080028a88        0x0 /usr/local/xenon/lib/gcc/xenon/6.3.0/../../../../xenon/lib/../lib/crt1.o
 .rela.text.xenon_sbrk
                0x0000000080028a88        0x0 /usr/local/xenon/lib/gcc/xenon/6.3.0/../../../../xenon/lib/../lib/crt1.o
 .rela.text.kmem_init
                0x0000000080028a88        0x0 /usr/local/xenon/lib/gcc/xenon/6.3.0/../../../../xenon/lib/../lib/crt1.o
 .rela.text.usbctrl_set_led_callback
                0x0000000080028a88        0x0 /usr/local/xenon/lib/gcc/xenon/6.3.0/../../../../xenon/lib/../lib/crt1.o
 .rela.text.usbctrl_set_rol
                0x0000000080028a88        0x0 /usr/local/xenon/lib/gcc/xenon/6.3.0/../../../../xenon/lib/../lib/crt1.o
 .rela.text.usbctrl_set_leds
                0x0000000080028a88        0x0 /usr/local/xenon/lib/gcc/xenon/6.3.0/../../../../xenon/lib/../lib/crt1.o
 .rela.text.usbctrl_poll
                0x0000000080028a88        0x0 /usr/local/xenon/lib/gcc/xenon/6.3.0/../../../../xenon/lib/../lib/crt1.o
 .rela.text.usbctrl_attach
                0x0000000080028a88        0x0 /usr/local/xenon/lib/gcc/xenon/6.3.0/../../../../xenon/lib/../lib/crt1.o
 .rela.text.usbctrl_set_rumble
                0x0000000080028a88        0x0 /usr/local/xenon/lib/gcc/xenon/6.3.0/../../../../xenon/lib/../lib/crt1.o
 .rela.text.usb_create_pipe
                0x0000000080028a88        0x0 /usr/local/xenon/lib/gcc/xenon/6.3.0/../../../../xenon/lib/../lib/crt1.o
 .rela.text.usb_destroy_pipe
                0x0000000080028a88        0x0 /usr/local/xenon/lib/gcc/xenon/6.3.0/../../../../xenon/lib/../lib/crt1.o
 .rela.text.usb_destroy_all_pipes
                0x0000000080028a88        0x0 /usr/local/xenon/lib/gcc/xenon/6.3.0/../../../../xenon/lib/../lib/crt1.o
 .rela.text.usb_destroy_device
                0x0000000080028a88        0x0 /usr/local/xenon/lib/gcc/xenon/6.3.0/../../../../xenon/lib/../lib/crt1.o
 .rela.text.usb_create_device
                0x0000000080028a88        0x0 /usr/local/xenon/lib/gcc/xenon/6.3.0/../../../../xenon/lib/../lib/crt1.o
 .rela.text.usb_make_request
                0x0000000080028a88        0x0 /usr/local/xenon/lib/gcc/xenon/6.3.0/../../../../xenon/lib/../lib/crt1.o
 .rela.text.usb_free_request
                0x0000000080028a88        0x0 /usr/local/xenon/lib/gcc/xenon/6.3.0/../../../../xenon/lib/../lib/crt1.o
 .rela.text.usb_clear_stall
                0x0000000080028a88        0x0 /usr/local/xenon/lib/gcc/xenon/6.3.0/../../../../xenon/lib/../lib/crt1.o
 .rela.text.usb_std_request
                0x0000000080028a88        0x0 /usr/local/xenon/lib/gcc/xenon/6.3.0/../../../../xenon/lib/../lib/crt1.o
 .rela.text.usb_get_string
                0x0000000080028a88        0x0 /usr/local/xenon/lib/gcc/xenon/6.3.0/../../../../xenon/lib/../lib/crt1.o
 .rela.text.usb_get_device_descriptor
                0x0000000080028a88        0x0 /usr/local/xenon/lib/gcc/xenon/6.3.0/../../../../xenon/lib/../lib/crt1.o
 .rela.text.usb_get_config_descriptor
                0x0000000080028a88        0x0 /usr/local/xenon/lib/gcc/xenon/6.3.0/../../../../xenon/lib/../lib/crt1.o
 .rela.text.usb_initroot
                0x0000000080028a88        0x0 /usr/local/xenon/lib/gcc/xenon/6.3.0/../../../../xenon/lib/../lib/crt1.o
 .rela.data.usb_drivers
                0x0000000080028a88        0x0 /usr/local/xenon/lib/gcc/xenon/6.3.0/../../../../xenon/lib/../lib/crt1.o
 .rela.text.usbhid_attach
                0x0000000080028a88        0x0 /usr/local/xenon/lib/gcc/xenon/6.3.0/../../../../xenon/lib/../lib/crt1.o
 .rela.text.usbhub_detach
                0x0000000080028a88        0x0 /usr/local/xenon/lib/gcc/xenon/6.3.0/../../../../xenon/lib/../lib/crt1.o
 .rela.text.usbhub_attach
                0x0000000080028a88        0x0 /usr/local/xenon/lib/gcc/xenon/6.3.0/../../../../xenon/lib/../lib/crt1.o
 .rela.text.usbhub_scan1
                0x0000000080028a88        0x0 /usr/local/xenon/lib/gcc/xenon/6.3.0/../../../../xenon/lib/../lib/crt1.o
 .rela.text.usb_init_one_ohci
                0x0000000080028a88        0x0 /usr/local/xenon/lib/gcc/xenon/6.3.0/../../../../xenon/lib/../lib/crt1.o
 .rela.text.usb_do_poll
                0x0000000080028a88        0x0 /usr/local/xenon/lib/gcc/xenon/6.3.0/../../../../xenon/lib/../lib/crt1.o
 .rela.text.EHCI_do_one
                0x0000000080028a88        0x0 /usr/local/xenon/lib/gcc/xenon/6.3.0/../../../../xenon/lib/../lib/crt1.o
 .rela.text.USBStorage_Init
                0x0000000080028a88        0x0 /usr/local/xenon/lib/gcc/xenon/6.3.0/../../../../xenon/lib/../lib/crt1.o
 .rela.text.seems_valid
                0x0000000080028a88        0x0 /usr/local/xenon/lib/gcc/xenon/6.3.0/../../../../xenon/lib/../lib/crt1.o
 .rela.text.stack_trace
                0x0000000080028a88        0x0 /usr/local/xenon/lib/gcc/xenon/6.3.0/../../../../xenon/lib/../lib/crt1.o
 .rela.text.xenon_config_init
                0x0000000080028a88        0x0 /usr/local/xenon/lib/gcc/xenon/6.3.0/../../../../xenon/lib/../lib/crt1.o
 .rela.text.enet_init
                0x0000000080028a88        0x0 /usr/local/xenon/lib/gcc/xenon/6.3.0/../../../../xenon/lib/../lib/crt1.o
 .rela.text.enet_poll
                0x0000000080028a88        0x0 /usr/local/xenon/lib/gcc/xenon/6.3.0/../../../../xenon/lib/../lib/crt1.o
 .rela.text.updateXeLL
                0x0000000080028a88        0x0 /usr/local/xenon/lib/gcc/xenon/6.3.0/../../../../xenon/lib/../lib/crt1.o
 .rela.text._ohci_dma_alloc
                0x0000000080028a88        0x0 /usr/local/xenon/lib/gcc/xenon/6.3.0/../../../../xenon/lib/../lib/crt1.o
 .rela.text.ohci_create
                0x0000000080028a88        0x0 /usr/local/xenon/lib/gcc/xenon/6.3.0/../../../../xenon/lib/../lib/crt1.o
 .rela.text.rawflash_checkImage_meta
                0x0000000080028a88        0x0 /usr/local/xenon/lib/gcc/xenon/6.3.0/../../../../xenon/lib/../lib/crt1.o
 .rela.text.rawflash_checkImage_ecd
                0x0000000080028a88        0x0 /usr/local/xenon/lib/gcc/xenon/6.3.0/../../../../xenon/lib/../lib/crt1.o
 .rela.text.rawflash_writeImage
                0x0000000080028a88        0x0 /usr/local/xenon/lib/gcc/xenon/6.3.0/../../../../xenon/lib/../lib/crt1.o
 .rela.text.rawflash_checkImage
                0x0000000080028a88        0x0 /usr/local/xenon/lib/gcc/xenon/6.3.0/../../../../xenon/lib/../lib/crt1.o
 .rela.text.try_rawflash
                0x0000000080028a88        0x0 /usr/local/xenon/lib/gcc/xenon/6.3.0/../../../../xenon/lib/../lib/crt1.o
 .rela.text.mem_init
                0x0000000080028a88        0x0 /usr/local/xenon/lib/gcc/xenon/6.3.0/../../../../xenon/lib/../lib/crt1.o
 .rela.text.mem_free
                0x0000000080028a88        0x0 /usr/local/xenon/lib/gcc/xenon/6.3.0/../../../../xenon/lib/../lib/crt1.o
 .rela.text.mem_trim
                0x0000000080028a88        0x0 /usr/local/xenon/lib/gcc/xenon/6.3.0/../../../../xenon/lib/../lib/crt1.o
 .rela.text.mem_malloc
                0x0000000080028a88        0x0 /usr/local/xenon/lib/gcc/xenon/6.3.0/../../../../xenon/lib/../lib/crt1.o
 .rela.text.pbuf_free_ooseq
                0x0000000080028a88        0x0 /usr/local/xenon/lib/gcc/xenon/6.3.0/../../../../xenon/lib/../lib/crt1.o
 .rela.text.pbuf_alloc
                0x0000000080028a88        0x0 /usr/local/xenon/lib/gcc/xenon/6.3.0/../../../../xenon/lib/../lib/crt1.o
 .rela.text.tcp_bind
                0x0000000080028a88        0x0 /usr/local/xenon/lib/gcc/xenon/6.3.0/../../../../xenon/lib/../lib/crt1.o
 .rela.text.tcp_listen_with_backlog
                0x0000000080028a88        0x0 /usr/local/xenon/lib/gcc/xenon/6.3.0/../../../../xenon/lib/../lib/crt1.o
 .rela.text.tcp_slowtmr
                0x0000000080028a88        0x0 /usr/local/xenon/lib/gcc/xenon/6.3.0/../../../../xenon/lib/../lib/crt1.o
 .rela.text.tcp_pcb_remove
                0x0000000080028a88        0x0 /usr/local/xenon/lib/gcc/xenon/6.3.0/../../../../xenon/lib/../lib/crt1.o
 .rela.text.tcp_close_shutdown
                0x0000000080028a88        0x0 /usr/local/xenon/lib/gcc/xenon/6.3.0/../../../../xenon/lib/../lib/crt1.o
 .rela.text.tcp_fasttmr
                0x0000000080028a88        0x0 /usr/local/xenon/lib/gcc/xenon/6.3.0/../../../../xenon/lib/../lib/crt1.o
 .rela.text.tcp_abandon
                0x0000000080028a88        0x0 /usr/local/xenon/lib/gcc/xenon/6.3.0/../../../../xenon/lib/../lib/crt1.o
 .rela.text.tcp_next_iss
                0x0000000080028a88        0x0 /usr/local/xenon/lib/gcc/xenon/6.3.0/../../../../xenon/lib/../lib/crt1.o
 .rela.text.tcp_alloc
                0x0000000080028a88        0x0 /usr/local/xenon/lib/gcc/xenon/6.3.0/../../../../xenon/lib/../lib/crt1.o
 .rela.text.tcp_connect
                0x0000000080028a88        0x0 /usr/local/xenon/lib/gcc/xenon/6.3.0/../../../../xenon/lib/../lib/crt1.o
 .rela.rodata.tcp_pcb_lists
                0x0000000080028a88        0x0 /usr/local/xenon/lib/gcc/xenon/6.3.0/../../../../xenon/lib/../lib/crt1.o
 .rela.text.ip_route
                0x0000000080028a88        0x0 /usr/local/xenon/lib/gcc/xenon/6.3.0/../../../../xenon/lib/../lib/crt1.o
 .rela.text.ip_input
                0x0000000080028a88        0x0 /usr/local/xenon/lib/gcc/xenon/6.3.0/../../../../xenon/lib/../lib/crt1.o
 .rela.text.ip_output_if
                0x0000000080028a88        0x0 /usr/local/xenon/lib/gcc/xenon/6.3.0/../../../../xenon/lib/../lib/crt1.o
 .rela.text.ip_output
                0x0000000080028a88        0x0 /usr/local/xenon/lib/gcc/xenon/6.3.0/../../../../xenon/lib/../lib/crt1.o
 .rela.text.ip_reass
                0x0000000080028a88        0x0 /usr/local/xenon/lib/gcc/xenon/6.3.0/../../../../xenon/lib/../lib/crt1.o
 .rela.text.ip_frag
                0x0000000080028a88        0x0 /usr/local/xenon/lib/gcc/xenon/6.3.0/../../../../xenon/lib/../lib/crt1.o
 .rela.text.tcp_create_segment
                0x0000000080028a88        0x0 /usr/local/xenon/lib/gcc/xenon/6.3.0/../../../../xenon/lib/../lib/crt1.o
 .rela.text.tcp_write
                0x0000000080028a88        0x0 /usr/local/xenon/lib/gcc/xenon/6.3.0/../../../../xenon/lib/../lib/crt1.o
 .rela.text.tcp_enqueue_flags
                0x0000000080028a88        0x0 /usr/local/xenon/lib/gcc/xenon/6.3.0/../../../../xenon/lib/../lib/crt1.o
 .rela.text.tcp_output
                0x0000000080028a88        0x0 /usr/local/xenon/lib/gcc/xenon/6.3.0/../../../../xenon/lib/../lib/crt1.o
 .rela.text.tcp_rst
                0x0000000080028a88        0x0 /usr/local/xenon/lib/gcc/xenon/6.3.0/../../../../xenon/lib/../lib/crt1.o
 .rela.text.tcp_keepalive
                0x0000000080028a88        0x0 /usr/local/xenon/lib/gcc/xenon/6.3.0/../../../../xenon/lib/../lib/crt1.o
 .rela.text.tcp_zero_window_probe
                0x0000000080028a88        0x0 /usr/local/xenon/lib/gcc/xenon/6.3.0/../../../../xenon/lib/../lib/crt1.o
 .rela.text.udp_input
                0x0000000080028a88        0x0 /usr/local/xenon/lib/gcc/xenon/6.3.0/../../../../xenon/lib/../lib/crt1.o
 .rela.text.udp_bind
                0x0000000080028a88        0x0 /usr/local/xenon/lib/gcc/xenon/6.3.0/../../../../xenon/lib/../lib/crt1.o
 .rela.text.udp_sendto_if
                0x0000000080028a88        0x0 /usr/local/xenon/lib/gcc/xenon/6.3.0/../../../../xenon/lib/../lib/crt1.o
 .rela.text.udp_sendto
                0x0000000080028a88        0x0 /usr/local/xenon/lib/gcc/xenon/6.3.0/../../../../xenon/lib/../lib/crt1.o
 .rela.text.udp_connect
                0x0000000080028a88        0x0 /usr/local/xenon/lib/gcc/xenon/6.3.0/../../../../xenon/lib/../lib/crt1.o
 .rela.text.udp_remove
                0x0000000080028a88        0x0 /usr/local/xenon/lib/gcc/xenon/6.3.0/../../../../xenon/lib/../lib/crt1.o
 .rela.text.etharp_request
                0x0000000080028a88        0x0 /usr/local/xenon/lib/gcc/xenon/6.3.0/../../../../xenon/lib/../lib/crt1.o
 .rela.text.etharp_query
                0x0000000080028a88        0x0 /usr/local/xenon/lib/gcc/xenon/6.3.0/../../../../xenon/lib/../lib/crt1.o
 .rela.text.etharp_output
                0x0000000080028a88        0x0 /usr/local/xenon/lib/gcc/xenon/6.3.0/../../../../xenon/lib/../lib/crt1.o
 .rela.text.ethernet_input
                0x0000000080028a88        0x0 /usr/local/xenon/lib/gcc/xenon/6.3.0/../../../../xenon/lib/../lib/crt1.o
 .rela.text.dhcp_rebind
                0x0000000080028a88        0x0 /usr/local/xenon/lib/gcc/xenon/6.3.0/../../../../xenon/lib/../lib/crt1.o
 .rela.text.dhcp_select
                0x0000000080028a88        0x0 /usr/local/xenon/lib/gcc/xenon/6.3.0/../../../../xenon/lib/../lib/crt1.o
 .rela.text.dhcp_reboot
                0x0000000080028a88        0x0 /usr/local/xenon/lib/gcc/xenon/6.3.0/../../../../xenon/lib/../lib/crt1.o
 .rela.text.dhcp_discover
                0x0000000080028a88        0x0 /usr/local/xenon/lib/gcc/xenon/6.3.0/../../../../xenon/lib/../lib/crt1.o
 .rela.text.dhcp_recv
                0x0000000080028a88        0x0 /usr/local/xenon/lib/gcc/xenon/6.3.0/../../../../xenon/lib/../lib/crt1.o
 .rela.text.dhcp_inform
                0x0000000080028a88        0x0 /usr/local/xenon/lib/gcc/xenon/6.3.0/../../../../xenon/lib/../lib/crt1.o
 .rela.text.dhcp_arp_reply
                0x0000000080028a88        0x0 /usr/local/xenon/lib/gcc/xenon/6.3.0/../../../../xenon/lib/../lib/crt1.o
 .rela.text.dhcp_coarse_tmr
                0x0000000080028a88        0x0 /usr/local/xenon/lib/gcc/xenon/6.3.0/../../../../xenon/lib/../lib/crt1.o
 .rela.text.dhcp_release
                0x0000000080028a88        0x0 /usr/local/xenon/lib/gcc/xenon/6.3.0/../../../../xenon/lib/../lib/crt1.o
 .rela.text.dhcp_fine_tmr
                0x0000000080028a88        0x0 /usr/local/xenon/lib/gcc/xenon/6.3.0/../../../../xenon/lib/../lib/crt1.o
 .rela.text.dhcp_start
                0x0000000080028a88        0x0 /usr/local/xenon/lib/gcc/xenon/6.3.0/../../../../xenon/lib/../lib/crt1.o
 .rela.text.raw_input
                0x0000000080028a88        0x0 /usr/local/xenon/lib/gcc/xenon/6.3.0/../../../../xenon/lib/../lib/crt1.o
 .rela.text.unlikely.tcp_receive
                0x0000000080028a88        0x0 /usr/local/xenon/lib/gcc/xenon/6.3.0/../../../../xenon/lib/../lib/crt1.o
 .rela.text.tcp_input
                0x0000000080028a88        0x0 /usr/local/xenon/lib/gcc/xenon/6.3.0/../../../../xenon/lib/../lib/crt1.o
 .rela.text.memp_init
                0x0000000080028a88        0x0 /usr/local/xenon/lib/gcc/xenon/6.3.0/../../../../xenon/lib/../lib/crt1.o
 .rela.text.memp_malloc
                0x0000000080028a88        0x0 /usr/local/xenon/lib/gcc/xenon/6.3.0/../../../../xenon/lib/../lib/crt1.o
 .rela.text.memp_free
                0x0000000080028a88        0x0 /usr/local/xenon/lib/gcc/xenon/6.3.0/../../../../xenon/lib/../lib/crt1.o
 .rela.text.netif_find
                0x0000000080028a88        0x0 /usr/local/xenon/lib/gcc/xenon/6.3.0/../../../../xenon/lib/../lib/crt1.o
 .rela.text.netif_set_ipaddr
                0x0000000080028a88        0x0 /usr/local/xenon/lib/gcc/xenon/6.3.0/../../../../xenon/lib/../lib/crt1.o
 .rela.text.netif_add
                0x0000000080028a88        0x0 /usr/local/xenon/lib/gcc/xenon/6.3.0/../../../../xenon/lib/../lib/crt1.o
 .rela.text.netif_set_default
                0x0000000080028a88        0x0 /usr/local/xenon/lib/gcc/xenon/6.3.0/../../../../xenon/lib/../lib/crt1.o
 .rela.text.netif_remove
                0x0000000080028a88        0x0 /usr/local/xenon/lib/gcc/xenon/6.3.0/../../../../xenon/lib/../lib/crt1.o
 .rela.text.icmp_send_response.isra.0
                0x0000000080028a88        0x0 /usr/local/xenon/lib/gcc/xenon/6.3.0/../../../../xenon/lib/../lib/crt1.o
 .rela.text.icmp_input
                0x0000000080028a88        0x0 /usr/local/xenon/lib/gcc/xenon/6.3.0/../../../../xenon/lib/../lib/crt1.o
 .rela.data     0x0000000080028a88        0x0 /usr/local/xenon/lib/gcc/xenon/6.3.0/../../../../xenon/lib/../lib/crt1.o

.gcc_except_table
 *(.gcc_except_table .gcc_except_table.*)
                0x0000000080028a88                bss_start = .

.bss            0x0000000080028b00   0x15bf3c
 *(.bss.beginning.lower)
 *(.bss.beginning.upper)
 *(.bss*)
 .bss.console_fb
                0x0000000080028b00        0x4 /usr/local/xenon/usr/lib/libxenon.a(console.o)
 .bss.console_height
                0x0000000080028b04        0x4 /usr/local/xenon/usr/lib/libxenon.a(console.o)
 .bss.console_size
                0x0000000080028b08        0x4 /usr/local/xenon/usr/lib/libxenon.a(console.o)
 .bss.console_width
                0x0000000080028b0c        0x4 /usr/local/xenon/usr/lib/libxenon.a(console.o)
 .bss.cursor_x  0x0000000080028b10        0x4 /usr/local/xenon/usr/lib/libxenon.a(console.o)
 .bss.cursor_y  0x0000000080028b14        0x4 /usr/local/xenon/usr/lib/libxenon.a(console.o)
 .bss.max_x     0x0000000080028b18        0x4 /usr/local/xenon/usr/lib/libxenon.a(console.o)
 .bss.max_y     0x0000000080028b1c        0x4 /usr/local/xenon/usr/lib/libxenon.a(console.o)
 .bss.offset_x  0x0000000080028b20        0x4 /usr/local/xenon/usr/lib/libxenon.a(console.o)
 .bss.offset_y  0x0000000080028b24        0x4 /usr/local/xenon/usr/lib/libxenon.a(console.o)
 .bss.ctrl      0x0000000080028b28      0x120 /usr/local/xenon/usr/lib/libxenon.a(input.o)
 .bss.valid     0x0000000080028c48       0x10 /usr/local/xenon/usr/lib/libxenon.a(input.o)
 .bss.handles   0x0000000080028c58     0x1000 /usr/local/xenon/usr/lib/libxenon.a(newlib.o)
 .bss.lockcount
                0x0000000080029c58        0x4 /usr/local/xenon/usr/lib/libxenon.a(xenon_syscalls.o)
 *fill*         0x0000000080029c5c       0x24 
 .bss.malloc_spinlock
                0x0000000080029c80        0x4 /usr/local/xenon/usr/lib/libxenon.a(xenon_syscalls.o)
 *fill*         0x0000000080029c84       0x7c 
 .bss.safety_spinlock
                0x0000000080029d00        0x4 /usr/local/xenon/usr/lib/libxenon.a(xenon_syscalls.o)
 *fill*         0x0000000080029d04        0x4 
 .bss.heap      0x0000000080029d08   0x100000 /usr/local/xenon/usr/lib/libxenon.a(lib_malloc.o)
 .bss.kmem_init_done
                0x0000000080129d08        0x4 /usr/local/xenon/usr/lib/libxenon.a(lib_malloc.o)
 *fill*         0x0000000080129d0c        0x4 
 .bss.text      0x0000000080129d10     0x1000 /usr/local/xenon/usr/lib/libxenon.a(c_except.o)
 .bss.userpagetable
                0x000000008012ad10    0x14000 /usr/local/xenon/usr/lib/libxenon.a(vm.o)
                0x000000008012ad10                userpagetable
 .bss.controller_mask
                0x000000008013ed10        0x4 /usr/local/xenon/usr/lib/libxenon.a(usbctrl.o)
 .bss.controllers
                0x000000008013ed14       0x10 /usr/local/xenon/usr/lib/libxenon.a(usbctrl.o)
 .bss.in_poll.4658
                0x000000008013ed24        0x4 /usr/local/xenon/usr/lib/libxenon.a(usbmain.o)
 .bss.initdone.4671
                0x000000008013ed28        0x4 /usr/local/xenon/usr/lib/libxenon.a(usbmain.o)
 .bss._ehci_data
                0x000000008013ed2c      0x5a0 /usr/local/xenon/usr/lib/libxenon.a(tinyehci.o)
 .bss._ehci_device_count
                0x000000008013f2cc        0x4 /usr/local/xenon/usr/lib/libxenon.a(tinyehci.o)
 .bss.udd.5290  0x000000008013f2d0       0x16 /usr/local/xenon/usr/lib/libxenon.a(tinyehci.o)
 *fill*         0x000000008013f2e6        0x2 
 .bss.ums_init_done
                0x000000008013f2e8        0x4 /usr/local/xenon/usr/lib/libxenon.a(tinyehci.o)
 *fill*         0x000000008013f2ec        0x4 
 .bss.stack     0x000000008013f2f0     0x5000 /usr/local/xenon/usr/lib/libxenon.a(xenon_power.o)
 .bss.thread_state
                0x00000000801442f0       0x18 /usr/local/xenon/usr/lib/libxenon.a(xenon_power.o)
 .bss.secured_settings
                0x0000000080144308      0x208 /usr/local/xenon/usr/lib/libxenon.a(xenon_config.o)
                0x0000000080144308                secured_settings
 .bss.xenon_config_initialized
                0x0000000080144510        0x4 /usr/local/xenon/usr/lib/libxenon.a(xenon_config.o)
 .bss.xenos_current_mode
                0x0000000080144514        0x4 /usr/local/xenon/usr/lib/libxenon.a(xenos.o)
 .bss.buf.4034  0x0000000080144518      0x100 /usr/local/xenon/usr/lib/libxenon.a(usbdebug.o)
 .bss.aligned_mem
                0x0000000080144618        0x4 /usr/local/xenon/usr/lib/libxenon.a(usb_os.o)
 *fill*         0x000000008014461c        0x4 
 .bss.heapspace
                0x0000000080144620    0x40000 /usr/local/xenon/usr/lib/libxenon.a(usb_os.o)
 .bss.sfc       0x0000000080184620       0x44 /usr/local/xenon/usr/lib/libxenon.a(xenon_sfcx.o)
                0x0000000080184620                sfc
 .bss           0x0000000080184664       0x14 /usr/local/xenon/lib/gcc/xenon/6.3.0/32/libgcc.a(unwind-dw2-fde-dip.o)
 .bss           0x0000000080184678       0x28 /usr/local/xenon/xenon/lib/32/libc.a(lib_a-mallocr.o)
                0x0000000080184678                __malloc_current_mallinfo
 COMMON         0x00000000801846a0        0xc /usr/local/xenon/usr/lib/libxenon.a(lib_malloc.o)
                0x00000000801846a0                kmempool
 COMMON         0x00000000801846ac       0x10 /usr/local/xenon/usr/lib/libxenon.a(usbmain.o)
                0x00000000801846ac                usb_buses
 COMMON         0x00000000801846bc      0x380 /usr/local/xenon/usr/lib/libxenon.a(tinyehci.o)
                0x00000000801846bc                ehci_hcds

.iplt           0x0000000080184a40        0x0
 .iplt          0x0000000080184a40        0x0 /usr/local/xenon/lib/gcc/xenon/6.3.0/../../../../xenon/lib/../lib/crt1.o

.sbss           0x0000000080184a3c       0x4c
 *(.sbss .sbss.*)
 .sbss          0x0000000080184a3c        0x0 /usr/local/xenon/lib/gcc/xenon/6.3.0/../../../../xenon/lib/../lib/crt1.o
 .sbss.stdlog_hook
                0x0000000080184a3c        0x4 /usr/local/xenon/usr/lib/libxenon.a(newlib.o)
                0x0000000080184a3c                stdlog_hook
 .sbss.stdout_hook
                0x0000000080184a40        0x4 /usr/local/xenon/usr/lib/libxenon.a(newlib.o)
                0x0000000080184a40                stdout_hook
 .sbss          0x0000000080184a44        0x4 /usr/local/xenon/usr/lib/libxenon.a(xenon_syscalls.o)
                0x0000000080184a44                heap_ptr
 .sbss.vm_segfault_handler
                0x0000000080184a48        0x4 /usr/local/xenon/usr/lib/libxenon.a(vm.o)
                0x0000000080184a48                vm_segfault_handler
 .sbss          0x0000000080184a4c        0x4 /usr/local/xenon/usr/lib/libxenon.a(usbctrl.o)
                0x0000000080184a4c                RFdev
 .sbss.usb_noisy
                0x0000000080184a50        0x4 /usr/local/xenon/usr/lib/libxenon.a(usbd.o)
                0x0000000080184a50                usb_noisy
 .sbss.usb_buscnt
                0x0000000080184a54        0x4 /usr/local/xenon/usr/lib/libxenon.a(usbmain.o)
                0x0000000080184a54                usb_buscnt
 .sbss.usb_initialized
                0x0000000080184a58        0x4 /usr/local/xenon/usr/lib/libxenon.a(usbmain.o)
                0x0000000080184a58                usb_initialized
 .sbss.handshake_mode
                0x0000000080184a5c        0x4 /usr/local/xenon/usr/lib/libxenon.a(tinyehci.o)
                0x0000000080184a5c                handshake_mode
 .sbss.mount_usb_device
                0x0000000080184a60        0x4 /usr/local/xenon/usr/lib/libxenon.a(tinyehci.o)
                0x0000000080184a60                mount_usb_device
 .sbss.try_status
                0x0000000080184a64        0x4 /usr/local/xenon/usr/lib/libxenon.a(tinyehci.o)
                0x0000000080184a64                try_status
 .sbss.unplug_device
                0x0000000080184a68        0x4 /usr/local/xenon/usr/lib/libxenon.a(tinyehci.o)
                0x0000000080184a68                unplug_device
 .sbss.xenos_id
                0x0000000080184a6c        0x4 /usr/local/xenon/usr/lib/libxenon.a(xenos.o)
                0x0000000080184a6c                xenos_id
 .sbss.xenos_is_corona
                0x0000000080184a70        0x4 /usr/local/xenon/usr/lib/libxenon.a(xenos.o)
                0x0000000080184a70                xenos_is_corona
 .sbss.xenos_is_hdmi
                0x0000000080184a74        0x4 /usr/local/xenon/usr/lib/libxenon.a(xenos.o)
                0x0000000080184a74                xenos_is_hdmi
 .sbss          0x0000000080184a78        0xc /usr/local/xenon/xenon/lib/32/libc.a(lib_a-mallocr.o)
                0x0000000080184a78                __malloc_max_total_mem
                0x0000000080184a7c                __malloc_max_sbrked_mem
                0x0000000080184a80                __malloc_top_pad
 .sbss          0x0000000080184a84        0x4 /usr/local/xenon/xenon/lib/32/libc.a(lib_a-reent.o)
                0x0000000080184a84                errno
                0x0000000080184a88                bss_end = .
                0x0000000080184a88                heap_begin = .
                0x000000009e000000                . = 0x9e000000
                0x000000009e000000                __libc_stack_end = .
                0x000000009e000000                heap_end = .
                0x00000000a0000000                . = 0xa0000000
OUTPUT(/mnt/share/TemperatureDisplay/TemperatureDisplay.elf elf32-powerpc)

.debug_info     0x0000000000000000    0x65c8a
 .debug_info    0x0000000000000000      0x1ea /usr/local/xenon/lib/gcc/xenon/6.3.0/../../../../xenon/lib/../lib/crt1.o
 .debug_info    0x00000000000001ea     0x18d9 main.o
 .debug_info    0x0000000000001ac3       0xd2 /usr/local/xenon/usr/lib/libxenon.a(argv.o)
 .debug_info    0x0000000000001b95      0xe6f /usr/local/xenon/usr/lib/libxenon.a(console.o)
 .debug_info    0x0000000000002a04      0x2ef /usr/local/xenon/usr/lib/libxenon.a(input.o)
 .debug_info    0x0000000000002cf3     0x346f /usr/local/xenon/usr/lib/libxenon.a(newlib.o)
 .debug_info    0x0000000000006162     0x18c5 /usr/local/xenon/usr/lib/libxenon.a(xenon_syscalls.o)
 .debug_info    0x0000000000007a27      0xdd3 /usr/local/xenon/usr/lib/libxenon.a(lib_malloc.o)
 .debug_info    0x00000000000087fa      0xd3e /usr/local/xenon/usr/lib/libxenon.a(c_except.o)
 .debug_info    0x0000000000009538      0xcf2 /usr/local/xenon/usr/lib/libxenon.a(vm.o)
 .debug_info    0x000000000000a22a      0x1b2 /usr/local/xenon/usr/lib/libxenon.a(time.o)
 .debug_info    0x000000000000a3dc     0x1dcf /usr/local/xenon/usr/lib/libxenon.a(usbctrl.o)
 .debug_info    0x000000000000c1ab     0x270f /usr/local/xenon/usr/lib/libxenon.a(usbd.o)
 .debug_info    0x000000000000e8ba     0x12ce /usr/local/xenon/usr/lib/libxenon.a(usbdevs.o)
 .debug_info    0x000000000000fb88     0x16b5 /usr/local/xenon/usr/lib/libxenon.a(usbhid.o)
 .debug_info    0x000000000001123d     0x2469 /usr/local/xenon/usr/lib/libxenon.a(usbhub.o)
 .debug_info    0x00000000000136a6     0x15e6 /usr/local/xenon/usr/lib/libxenon.a(usbmain.o)
 .debug_info    0x0000000000014c8c     0x5aef /usr/local/xenon/usr/lib/libxenon.a(tinyehci.o)
 .debug_info    0x000000000001a77b      0xd53 /usr/local/xenon/usr/lib/libxenon.a(debug.o)
 .debug_info    0x000000000001b4ce     0x130b /usr/local/xenon/usr/lib/libxenon.a(xenon_smc.o)
 .debug_info    0x000000000001c7d9     0x157d /usr/local/xenon/usr/lib/libxenon.a(xenon_power.o)
 .debug_info    0x000000000001dd56      0x120 /usr/local/xenon/usr/lib/libxenon.a(xenon_uart.o)
 .debug_info    0x000000000001de76      0xdd6 /usr/local/xenon/usr/lib/libxenon.a(xenon_config.o)
 .debug_info    0x000000000001ec4c     0x536c /usr/local/xenon/usr/lib/libxenon.a(xenos.o)
 .debug_info    0x0000000000023fb8     0x143f /usr/local/xenon/usr/lib/libxenon.a(xenos_edid.o)
 .debug_info    0x00000000000253f7     0x1d6f /usr/local/xenon/usr/lib/libxenon.a(enet.o)
 .debug_info    0x0000000000027166     0x1d5f /usr/local/xenon/usr/lib/libxenon.a(xb360.o)
 .debug_info    0x0000000000028ec5     0x105e /usr/local/xenon/usr/lib/libxenon.a(dummy.o)
 .debug_info    0x0000000000029f23     0x2dab /usr/local/xenon/usr/lib/libxenon.a(ohci.o)
 .debug_info    0x000000000002ccce     0x1f62 /usr/local/xenon/usr/lib/libxenon.a(usbdebug.o)
 .debug_info    0x000000000002ec30      0xcf4 /usr/local/xenon/usr/lib/libxenon.a(usb_os.o)
 .debug_info    0x000000000002f924      0x243 /usr/local/xenon/usr/lib/libxenon.a(xenon_gpio.o)
 .debug_info    0x000000000002fb67     0x1f17 /usr/local/xenon/usr/lib/libxenon.a(xenon_sfcx.o)
 .debug_info    0x0000000000031a7e      0xade /usr/local/xenon/usr/lib/libxenon.a(lib_queue.o)
 .debug_info    0x000000000003255c       0x8b /usr/local/xenon/lib/gcc/xenon/6.3.0/32/libgcc.a(crtsavgpr.o)
 .debug_info    0x00000000000325e7       0x8c /usr/local/xenon/lib/gcc/xenon/6.3.0/32/libgcc.a(crtresxgpr.o)
 .debug_info    0x0000000000032673     0x4907 /usr/local/xenon/lib/gcc/xenon/6.3.0/32/libgcc.a(unwind-dw2-fde-dip.o)
 .debug_info    0x0000000000036f7a      0x993 /usr/local/xenon/xenon/lib/32/libc.a(lib_a-assert.o)
 .debug_info    0x000000000003790d      0x948 /usr/local/xenon/xenon/lib/32/libc.a(lib_a-exit.o)
 .debug_info    0x0000000000038255      0xc13 /usr/local/xenon/xenon/lib/32/libc.a(lib_a-fclose.o)
 .debug_info    0x0000000000038e68      0xc9c /usr/local/xenon/xenon/lib/32/libc.a(lib_a-fflush.o)
 .debug_info    0x0000000000039b04      0xfa4 /usr/local/xenon/xenon/lib/32/libc.a(lib_a-findfp.o)
 .debug_info    0x000000000003aaa8      0xa0d /usr/local/xenon/xenon/lib/32/libc.a(lib_a-fiprintf.o)
 .debug_info    0x000000000003b4b5      0xcb4 /usr/local/xenon/xenon/lib/32/libc.a(lib_a-freer.o)
 .debug_info    0x000000000003c169      0xb56 /usr/local/xenon/xenon/lib/32/libc.a(lib_a-fstatr.o)
 .debug_info    0x000000000003ccbf      0xbdd /usr/local/xenon/xenon/lib/32/libc.a(lib_a-fwalk.o)
 .debug_info    0x000000000003d89c      0x8b0 /usr/local/xenon/xenon/lib/32/libc.a(lib_a-impure.o)
 .debug_info    0x000000000003e14c     0x101b /usr/local/xenon/xenon/lib/32/libc.a(lib_a-locale.o)
 .debug_info    0x000000000003f167      0xe54 /usr/local/xenon/xenon/lib/32/libc.a(lib_a-makebuf.o)
 .debug_info    0x000000000003ffbb      0x92d /usr/local/xenon/xenon/lib/32/libc.a(lib_a-malloc.o)
 .debug_info    0x00000000000408e8      0xdfb /usr/local/xenon/xenon/lib/32/libc.a(lib_a-mallocr.o)
 .debug_info    0x00000000000416e3      0xf3e /usr/local/xenon/xenon/lib/32/libc.a(lib_a-mbtowc_r.o)
 .debug_info    0x0000000000042621      0x924 /usr/local/xenon/xenon/lib/32/libc.a(lib_a-memcmp.o)
 .debug_info    0x0000000000042f45      0x93f /usr/local/xenon/xenon/lib/32/libc.a(lib_a-memcpy.o)
 .debug_info    0x0000000000043884      0xe29 /usr/local/xenon/xenon/lib/32/libc.a(lib_a-memset.o)
 .debug_info    0x00000000000446ad      0xbd9 /usr/local/xenon/xenon/lib/32/libc.a(lib_a-printf.o)
 .debug_info    0x0000000000045286      0xb12 /usr/local/xenon/xenon/lib/32/libc.a(lib_a-putchar.o)
 .debug_info    0x0000000000045d98      0xc24 /usr/local/xenon/xenon/lib/32/libc.a(lib_a-puts.o)
 .debug_info    0x00000000000469bc      0xa23 /usr/local/xenon/xenon/lib/32/libc.a(lib_a-reent.o)
 .debug_info    0x00000000000473df      0x965 /usr/local/xenon/xenon/lib/32/libc.a(lib_a-sbrkr.o)
 .debug_info    0x0000000000047d44      0xc1c /usr/local/xenon/xenon/lib/32/libc.a(lib_a-sprintf.o)
 .debug_info    0x0000000000048960      0xd61 /usr/local/xenon/xenon/lib/32/libc.a(lib_a-stdio.o)
 .debug_info    0x00000000000496c1      0x915 /usr/local/xenon/xenon/lib/32/libc.a(lib_a-strcat.o)
 .debug_info    0x0000000000049fd6      0x8e9 /usr/local/xenon/xenon/lib/32/libc.a(lib_a-strcmp.o)
 .debug_info    0x000000000004a8bf      0x914 /usr/local/xenon/xenon/lib/32/libc.a(lib_a-strcpy.o)
 .debug_info    0x000000000004b1d3      0x8e9 /usr/local/xenon/xenon/lib/32/libc.a(lib_a-strlen.o)
 .debug_info    0x000000000004babc     0x1c4a /usr/local/xenon/xenon/lib/32/libc.a(lib_a-svfprintf.o)
 .debug_info    0x000000000004d706     0x1bfd /usr/local/xenon/xenon/lib/32/libc.a(lib_a-vfiprintf.o)
 .debug_info    0x000000000004f303     0x1dff /usr/local/xenon/xenon/lib/32/libc.a(lib_a-vfprintf.o)
 .debug_info    0x0000000000051102      0xbda /usr/local/xenon/xenon/lib/32/libc.a(lib_a-vsprintf.o)
 .debug_info    0x0000000000051cdc      0xf07 /usr/local/xenon/xenon/lib/32/libc.a(lib_a-wctomb_r.o)
 .debug_info    0x0000000000052be3      0x98d /usr/local/xenon/xenon/lib/32/libc.a(lib_a-writer.o)
 .debug_info    0x0000000000053570      0xb51 /usr/local/xenon/xenon/lib/32/libc.a(lib_a-wsetup.o)
 .debug_info    0x00000000000540c1      0x980 /usr/local/xenon/xenon/lib/32/libc.a(lib_a-__call_atexit.o)
 .debug_info    0x0000000000054a41      0x944 /usr/local/xenon/xenon/lib/32/libc.a(lib_a-closer.o)
 .debug_info    0x0000000000055385      0xdbd /usr/local/xenon/xenon/lib/32/libc.a(lib_a-ctype_.o)
 .debug_info    0x0000000000056142     0x1801 /usr/local/xenon/xenon/lib/32/libc.a(lib_a-dtoa.o)
 .debug_info    0x0000000000057943      0xd2e /usr/local/xenon/xenon/lib/32/libc.a(lib_a-fputwc.o)
 .debug_info    0x0000000000058671      0xde5 /usr/local/xenon/xenon/lib/32/libc.a(lib_a-fvwrite.o)
 .debug_info    0x0000000000059456      0x944 /usr/local/xenon/xenon/lib/32/libc.a(lib_a-isattyr.o)
 .debug_info    0x0000000000059d9a      0xe83 /usr/local/xenon/xenon/lib/32/libc.a(lib_a-localeconv.o)
 .debug_info    0x000000000005ac1d      0x970 /usr/local/xenon/xenon/lib/32/libc.a(lib_a-lseekr.o)
 .debug_info    0x000000000005b58d      0x940 /usr/local/xenon/xenon/lib/32/libc.a(lib_a-memchr.o)
 .debug_info    0x000000000005becd      0xe38 /usr/local/xenon/xenon/lib/32/libc.a(lib_a-memmove.o)
 .debug_info    0x000000000005cd05     0x1c53 /usr/local/xenon/xenon/lib/32/libc.a(lib_a-mprec.o)
 .debug_info    0x000000000005e958      0xc39 /usr/local/xenon/xenon/lib/32/libc.a(lib_a-putc.o)
 .debug_info    0x000000000005f591      0x986 /usr/local/xenon/xenon/lib/32/libc.a(lib_a-readr.o)
 .debug_info    0x000000000005ff17      0xdda /usr/local/xenon/xenon/lib/32/libc.a(lib_a-reallocr.o)
 .debug_info    0x0000000000060cf1     0x176d /usr/local/xenon/xenon/lib/32/libc.a(lib_a-svfiprintf.o)
 .debug_info    0x000000000006245e      0xbd9 /usr/local/xenon/xenon/lib/32/libc.a(lib_a-wbuf.o)
 .debug_info    0x0000000000063037      0xfd3 /usr/local/xenon/xenon/lib/32/libc.a(lib_a-wcrtomb.o)
 .debug_info    0x000000000006400a      0xb64 /usr/local/xenon/xenon/lib/32/libc.a(lib_a-callocr.o)
 .debug_info    0x0000000000064b6e      0x88b /usr/local/xenon/lib/gcc/xenon/6.3.0/32/libgcc.a(_udivdi3.o)
 .debug_info    0x00000000000653f9      0x891 /usr/local/xenon/lib/gcc/xenon/6.3.0/32/libgcc.a(_umoddi3.o)

.debug_abbrev   0x0000000000000000     0xf84d
 .debug_abbrev  0x0000000000000000      0x158 /usr/local/xenon/lib/gcc/xenon/6.3.0/../../../../xenon/lib/../lib/crt1.o
 .debug_abbrev  0x0000000000000158      0x2d9 main.o
 .debug_abbrev  0x0000000000000431       0x78 /usr/local/xenon/usr/lib/libxenon.a(argv.o)
 .debug_abbrev  0x00000000000004a9      0x388 /usr/local/xenon/usr/lib/libxenon.a(console.o)
 .debug_abbrev  0x0000000000000831      0x13b /usr/local/xenon/usr/lib/libxenon.a(input.o)
 .debug_abbrev  0x000000000000096c      0x5d3 /usr/local/xenon/usr/lib/libxenon.a(newlib.o)
 .debug_abbrev  0x0000000000000f3f      0x37e /usr/local/xenon/usr/lib/libxenon.a(xenon_syscalls.o)
 .debug_abbrev  0x00000000000012bd      0x392 /usr/local/xenon/usr/lib/libxenon.a(lib_malloc.o)
 .debug_abbrev  0x000000000000164f      0x2c9 /usr/local/xenon/usr/lib/libxenon.a(c_except.o)
 .debug_abbrev  0x0000000000001918      0x2c9 /usr/local/xenon/usr/lib/libxenon.a(vm.o)
 .debug_abbrev  0x0000000000001be1       0xfb /usr/local/xenon/usr/lib/libxenon.a(time.o)
 .debug_abbrev  0x0000000000001cdc      0x3ff /usr/local/xenon/usr/lib/libxenon.a(usbctrl.o)
 .debug_abbrev  0x00000000000020db      0x45b /usr/local/xenon/usr/lib/libxenon.a(usbd.o)
 .debug_abbrev  0x0000000000002536      0x26e /usr/local/xenon/usr/lib/libxenon.a(usbdevs.o)
 .debug_abbrev  0x00000000000027a4      0x301 /usr/local/xenon/usr/lib/libxenon.a(usbhid.o)
 .debug_abbrev  0x0000000000002aa5      0x443 /usr/local/xenon/usr/lib/libxenon.a(usbhub.o)
 .debug_abbrev  0x0000000000002ee8      0x377 /usr/local/xenon/usr/lib/libxenon.a(usbmain.o)
 .debug_abbrev  0x000000000000325f      0x639 /usr/local/xenon/usr/lib/libxenon.a(tinyehci.o)
 .debug_abbrev  0x0000000000003898      0x29b /usr/local/xenon/usr/lib/libxenon.a(debug.o)
 .debug_abbrev  0x0000000000003b33      0x3ed /usr/local/xenon/usr/lib/libxenon.a(xenon_smc.o)
 .debug_abbrev  0x0000000000003f20      0x47a /usr/local/xenon/usr/lib/libxenon.a(xenon_power.o)
 .debug_abbrev  0x000000000000439a       0xce /usr/local/xenon/usr/lib/libxenon.a(xenon_uart.o)
 .debug_abbrev  0x0000000000004468      0x310 /usr/local/xenon/usr/lib/libxenon.a(xenon_config.o)
 .debug_abbrev  0x0000000000004778      0x544 /usr/local/xenon/usr/lib/libxenon.a(xenos.o)
 .debug_abbrev  0x0000000000004cbc      0x3e4 /usr/local/xenon/usr/lib/libxenon.a(xenos_edid.o)
 .debug_abbrev  0x00000000000050a0      0x462 /usr/local/xenon/usr/lib/libxenon.a(enet.o)
 .debug_abbrev  0x0000000000005502      0x422 /usr/local/xenon/usr/lib/libxenon.a(xb360.o)
 .debug_abbrev  0x0000000000005924      0x208 /usr/local/xenon/usr/lib/libxenon.a(dummy.o)
 .debug_abbrev  0x0000000000005b2c      0x3fa /usr/local/xenon/usr/lib/libxenon.a(ohci.o)
 .debug_abbrev  0x0000000000005f26      0x371 /usr/local/xenon/usr/lib/libxenon.a(usbdebug.o)
 .debug_abbrev  0x0000000000006297      0x2cd /usr/local/xenon/usr/lib/libxenon.a(usb_os.o)
 .debug_abbrev  0x0000000000006564      0x11a /usr/local/xenon/usr/lib/libxenon.a(xenon_gpio.o)
 .debug_abbrev  0x000000000000667e      0x48f /usr/local/xenon/usr/lib/libxenon.a(xenon_sfcx.o)
 .debug_abbrev  0x0000000000006b0d      0x25e /usr/local/xenon/usr/lib/libxenon.a(lib_queue.o)
 .debug_abbrev  0x0000000000006d6b       0x14 /usr/local/xenon/lib/gcc/xenon/6.3.0/32/libgcc.a(crtsavgpr.o)
 .debug_abbrev  0x0000000000006d7f       0x14 /usr/local/xenon/lib/gcc/xenon/6.3.0/32/libgcc.a(crtresxgpr.o)
 .debug_abbrev  0x0000000000006d93      0x550 /usr/local/xenon/lib/gcc/xenon/6.3.0/32/libgcc.a(unwind-dw2-fde-dip.o)
 .debug_abbrev  0x00000000000072e3      0x20c /usr/local/xenon/xenon/lib/32/libc.a(lib_a-assert.o)
 .debug_abbrev  0x00000000000074ef      0x1f0 /usr/local/xenon/xenon/lib/32/libc.a(lib_a-exit.o)
 .debug_abbrev  0x00000000000076df      0x2ce /usr/local/xenon/xenon/lib/32/libc.a(lib_a-fclose.o)
 .debug_abbrev  0x00000000000079ad      0x2c6 /usr/local/xenon/xenon/lib/32/libc.a(lib_a-fflush.o)
 .debug_abbrev  0x0000000000007c73      0x39f /usr/local/xenon/xenon/lib/32/libc.a(lib_a-findfp.o)
 .debug_abbrev  0x0000000000008012      0x1ee /usr/local/xenon/xenon/lib/32/libc.a(lib_a-fiprintf.o)
 .debug_abbrev  0x0000000000008200      0x283 /usr/local/xenon/xenon/lib/32/libc.a(lib_a-freer.o)
 .debug_abbrev  0x0000000000008483      0x200 /usr/local/xenon/xenon/lib/32/libc.a(lib_a-fstatr.o)
 .debug_abbrev  0x0000000000008683      0x216 /usr/local/xenon/xenon/lib/32/libc.a(lib_a-fwalk.o)
 .debug_abbrev  0x0000000000008899      0x192 /usr/local/xenon/xenon/lib/32/libc.a(lib_a-impure.o)
 .debug_abbrev  0x0000000000008a2b      0x2a8 /usr/local/xenon/xenon/lib/32/libc.a(lib_a-locale.o)
 .debug_abbrev  0x0000000000008cd3      0x2e2 /usr/local/xenon/xenon/lib/32/libc.a(lib_a-makebuf.o)
 .debug_abbrev  0x0000000000008fb5      0x1ff /usr/local/xenon/xenon/lib/32/libc.a(lib_a-malloc.o)
 .debug_abbrev  0x00000000000091b4      0x2cd /usr/local/xenon/xenon/lib/32/libc.a(lib_a-mallocr.o)
 .debug_abbrev  0x0000000000009481      0x268 /usr/local/xenon/xenon/lib/32/libc.a(lib_a-mbtowc_r.o)
 .debug_abbrev  0x00000000000096e9      0x1bd /usr/local/xenon/xenon/lib/32/libc.a(lib_a-memcmp.o)
 .debug_abbrev  0x00000000000098a6      0x1e2 /usr/local/xenon/xenon/lib/32/libc.a(lib_a-memcpy.o)
 .debug_abbrev  0x0000000000009a88      0x1de /usr/local/xenon/xenon/lib/32/libc.a(lib_a-memset.o)
 .debug_abbrev  0x0000000000009c66      0x252 /usr/local/xenon/xenon/lib/32/libc.a(lib_a-printf.o)
 .debug_abbrev  0x0000000000009eb8      0x231 /usr/local/xenon/xenon/lib/32/libc.a(lib_a-putchar.o)
 .debug_abbrev  0x000000000000a0e9      0x282 /usr/local/xenon/xenon/lib/32/libc.a(lib_a-puts.o)
 .debug_abbrev  0x000000000000a36b      0x276 /usr/local/xenon/xenon/lib/32/libc.a(lib_a-reent.o)
 .debug_abbrev  0x000000000000a5e1      0x215 /usr/local/xenon/xenon/lib/32/libc.a(lib_a-sbrkr.o)
 .debug_abbrev  0x000000000000a7f6      0x243 /usr/local/xenon/xenon/lib/32/libc.a(lib_a-sprintf.o)
 .debug_abbrev  0x000000000000aa39      0x276 /usr/local/xenon/xenon/lib/32/libc.a(lib_a-stdio.o)
 .debug_abbrev  0x000000000000acaf      0x1f5 /usr/local/xenon/xenon/lib/32/libc.a(lib_a-strcat.o)
 .debug_abbrev  0x000000000000aea4      0x1b8 /usr/local/xenon/xenon/lib/32/libc.a(lib_a-strcmp.o)
 .debug_abbrev  0x000000000000b05c      0x1d6 /usr/local/xenon/xenon/lib/32/libc.a(lib_a-strcpy.o)
 .debug_abbrev  0x000000000000b232      0x1b8 /usr/local/xenon/xenon/lib/32/libc.a(lib_a-strlen.o)
 .debug_abbrev  0x000000000000b3ea      0x388 /usr/local/xenon/xenon/lib/32/libc.a(lib_a-svfprintf.o)
 .debug_abbrev  0x000000000000b772      0x3e5 /usr/local/xenon/xenon/lib/32/libc.a(lib_a-vfiprintf.o)
 .debug_abbrev  0x000000000000bb57      0x3d5 /usr/local/xenon/xenon/lib/32/libc.a(lib_a-vfprintf.o)
 .debug_abbrev  0x000000000000bf2c      0x243 /usr/local/xenon/xenon/lib/32/libc.a(lib_a-vsprintf.o)
 .debug_abbrev  0x000000000000c16f      0x252 /usr/local/xenon/xenon/lib/32/libc.a(lib_a-wctomb_r.o)
 .debug_abbrev  0x000000000000c3c1      0x1f6 /usr/local/xenon/xenon/lib/32/libc.a(lib_a-writer.o)
 .debug_abbrev  0x000000000000c5b7      0x249 /usr/local/xenon/xenon/lib/32/libc.a(lib_a-wsetup.o)
 .debug_abbrev  0x000000000000c800      0x239 /usr/local/xenon/xenon/lib/32/libc.a(lib_a-__call_atexit.o)
 .debug_abbrev  0x000000000000ca39      0x1f1 /usr/local/xenon/xenon/lib/32/libc.a(lib_a-closer.o)
 .debug_abbrev  0x000000000000cc2a      0x190 /usr/local/xenon/xenon/lib/32/libc.a(lib_a-ctype_.o)
 .debug_abbrev  0x000000000000cdba      0x2d2 /usr/local/xenon/xenon/lib/32/libc.a(lib_a-dtoa.o)
 .debug_abbrev  0x000000000000d08c      0x322 /usr/local/xenon/xenon/lib/32/libc.a(lib_a-fputwc.o)
 .debug_abbrev  0x000000000000d3ae      0x26a /usr/local/xenon/xenon/lib/32/libc.a(lib_a-fvwrite.o)
 .debug_abbrev  0x000000000000d618      0x1f1 /usr/local/xenon/xenon/lib/32/libc.a(lib_a-isattyr.o)
 .debug_abbrev  0x000000000000d809      0x233 /usr/local/xenon/xenon/lib/32/libc.a(lib_a-localeconv.o)
 .debug_abbrev  0x000000000000da3c      0x200 /usr/local/xenon/xenon/lib/32/libc.a(lib_a-lseekr.o)
 .debug_abbrev  0x000000000000dc3c      0x1db /usr/local/xenon/xenon/lib/32/libc.a(lib_a-memchr.o)
 .debug_abbrev  0x000000000000de17      0x1e3 /usr/local/xenon/xenon/lib/32/libc.a(lib_a-memmove.o)
 .debug_abbrev  0x000000000000dffa      0x3ce /usr/local/xenon/xenon/lib/32/libc.a(lib_a-mprec.o)
 .debug_abbrev  0x000000000000e3c8      0x2b3 /usr/local/xenon/xenon/lib/32/libc.a(lib_a-putc.o)
 .debug_abbrev  0x000000000000e67b      0x1f1 /usr/local/xenon/xenon/lib/32/libc.a(lib_a-readr.o)
 .debug_abbrev  0x000000000000e86c      0x259 /usr/local/xenon/xenon/lib/32/libc.a(lib_a-reallocr.o)
 .debug_abbrev  0x000000000000eac5      0x2e0 /usr/local/xenon/xenon/lib/32/libc.a(lib_a-svfiprintf.o)
 .debug_abbrev  0x000000000000eda5      0x282 /usr/local/xenon/xenon/lib/32/libc.a(lib_a-wbuf.o)
 .debug_abbrev  0x000000000000f027      0x22a /usr/local/xenon/xenon/lib/32/libc.a(lib_a-wcrtomb.o)
 .debug_abbrev  0x000000000000f251      0x235 /usr/local/xenon/xenon/lib/32/libc.a(lib_a-callocr.o)
 .debug_abbrev  0x000000000000f486      0x1dc /usr/local/xenon/lib/gcc/xenon/6.3.0/32/libgcc.a(_udivdi3.o)
 .debug_abbrev  0x000000000000f662      0x1eb /usr/local/xenon/lib/gcc/xenon/6.3.0/32/libgcc.a(_umoddi3.o)

.debug_loc      0x0000000000000000    0x287b7
 .debug_loc     0x0000000000000000       0x13 /usr/local/xenon/lib/gcc/xenon/6.3.0/../../../../xenon/lib/../lib/crt1.o
 .debug_loc     0x0000000000000013      0x261 main.o
 .debug_loc     0x0000000000000274      0x2cb /usr/local/xenon/usr/lib/libxenon.a(console.o)
 .debug_loc     0x000000000000053f      0x134 /usr/local/xenon/usr/lib/libxenon.a(input.o)
 .debug_loc     0x0000000000000673     0x1fc3 /usr/local/xenon/usr/lib/libxenon.a(newlib.o)
 .debug_loc     0x0000000000002636      0x2c0 /usr/local/xenon/usr/lib/libxenon.a(xenon_syscalls.o)
 .debug_loc     0x00000000000028f6      0x3c8 /usr/local/xenon/usr/lib/libxenon.a(lib_malloc.o)
 .debug_loc     0x0000000000002cbe      0x25c /usr/local/xenon/usr/lib/libxenon.a(c_except.o)
 .debug_loc     0x0000000000002f1a      0x2bd /usr/local/xenon/usr/lib/libxenon.a(vm.o)
 .debug_loc     0x00000000000031d7       0x94 /usr/local/xenon/usr/lib/libxenon.a(time.o)
 .debug_loc     0x000000000000326b      0x98e /usr/local/xenon/usr/lib/libxenon.a(usbctrl.o)
 .debug_loc     0x0000000000003bf9     0x121c /usr/local/xenon/usr/lib/libxenon.a(usbd.o)
 .debug_loc     0x0000000000004e15      0x150 /usr/local/xenon/usr/lib/libxenon.a(usbdevs.o)
 .debug_loc     0x0000000000004f65      0x2d4 /usr/local/xenon/usr/lib/libxenon.a(usbhid.o)
 .debug_loc     0x0000000000005239      0x9f5 /usr/local/xenon/usr/lib/libxenon.a(usbhub.o)
 .debug_loc     0x0000000000005c2e      0x364 /usr/local/xenon/usr/lib/libxenon.a(usbmain.o)
 .debug_loc     0x0000000000005f92     0x3e3c /usr/local/xenon/usr/lib/libxenon.a(tinyehci.o)
 .debug_loc     0x0000000000009dce      0x248 /usr/local/xenon/usr/lib/libxenon.a(debug.o)
 .debug_loc     0x000000000000a016      0x664 /usr/local/xenon/usr/lib/libxenon.a(xenon_smc.o)
 .debug_loc     0x000000000000a67a      0x90f /usr/local/xenon/usr/lib/libxenon.a(xenon_power.o)
 .debug_loc     0x000000000000af89       0x6c /usr/local/xenon/usr/lib/libxenon.a(xenon_uart.o)
 .debug_loc     0x000000000000aff5       0xa1 /usr/local/xenon/usr/lib/libxenon.a(xenon_config.o)
 .debug_loc     0x000000000000b096     0x31c3 /usr/local/xenon/usr/lib/libxenon.a(xenos.o)
 .debug_loc     0x000000000000e259      0x4d2 /usr/local/xenon/usr/lib/libxenon.a(xenos_edid.o)
 .debug_loc     0x000000000000e72b      0xc01 /usr/local/xenon/usr/lib/libxenon.a(enet.o)
 .debug_loc     0x000000000000f32c      0x85f /usr/local/xenon/usr/lib/libxenon.a(xb360.o)
 .debug_loc     0x000000000000fb8b       0x42 /usr/local/xenon/usr/lib/libxenon.a(dummy.o)
 .debug_loc     0x000000000000fbcd     0x2221 /usr/local/xenon/usr/lib/libxenon.a(ohci.o)
 .debug_loc     0x0000000000011dee      0x48d /usr/local/xenon/usr/lib/libxenon.a(usbdebug.o)
 .debug_loc     0x000000000001227b      0x1e8 /usr/local/xenon/usr/lib/libxenon.a(usb_os.o)
 .debug_loc     0x0000000000012463      0x1f2 /usr/local/xenon/usr/lib/libxenon.a(xenon_gpio.o)
 .debug_loc     0x0000000000012655     0x1101 /usr/local/xenon/usr/lib/libxenon.a(xenon_sfcx.o)
 .debug_loc     0x0000000000013756      0x1af /usr/local/xenon/usr/lib/libxenon.a(lib_queue.o)
 .debug_loc     0x0000000000013905     0x1f4d /usr/local/xenon/lib/gcc/xenon/6.3.0/32/libgcc.a(unwind-dw2-fde-dip.o)
 .debug_loc     0x0000000000015852      0x158 /usr/local/xenon/xenon/lib/32/libc.a(lib_a-assert.o)
 .debug_loc     0x00000000000159aa       0x1e /usr/local/xenon/xenon/lib/32/libc.a(lib_a-exit.o)
 .debug_loc     0x00000000000159c8      0x19f /usr/local/xenon/xenon/lib/32/libc.a(lib_a-fclose.o)
 .debug_loc     0x0000000000015b67      0x38e /usr/local/xenon/xenon/lib/32/libc.a(lib_a-fflush.o)
 .debug_loc     0x0000000000015ef5      0x2e1 /usr/local/xenon/xenon/lib/32/libc.a(lib_a-findfp.o)
 .debug_loc     0x00000000000161d6       0xbb /usr/local/xenon/xenon/lib/32/libc.a(lib_a-fiprintf.o)
 .debug_loc     0x0000000000016291      0x506 /usr/local/xenon/xenon/lib/32/libc.a(lib_a-freer.o)
 .debug_loc     0x0000000000016797       0x9d /usr/local/xenon/xenon/lib/32/libc.a(lib_a-fstatr.o)
 .debug_loc     0x0000000000016834      0x29b /usr/local/xenon/xenon/lib/32/libc.a(lib_a-fwalk.o)
 .debug_loc     0x0000000000016acf       0xf2 /usr/local/xenon/xenon/lib/32/libc.a(lib_a-locale.o)
 .debug_loc     0x0000000000016bc1      0x2f2 /usr/local/xenon/xenon/lib/32/libc.a(lib_a-makebuf.o)
 .debug_loc     0x0000000000016eb3       0x58 /usr/local/xenon/xenon/lib/32/libc.a(lib_a-malloc.o)
 .debug_loc     0x0000000000016f0b      0xc5f /usr/local/xenon/xenon/lib/32/libc.a(lib_a-mallocr.o)
 .debug_loc     0x0000000000017b6a      0x1de /usr/local/xenon/xenon/lib/32/libc.a(lib_a-mbtowc_r.o)
 .debug_loc     0x0000000000017d48      0x10e /usr/local/xenon/xenon/lib/32/libc.a(lib_a-memcmp.o)
 .debug_loc     0x0000000000017e56      0x1c6 /usr/local/xenon/xenon/lib/32/libc.a(lib_a-memcpy.o)
 .debug_loc     0x000000000001801c      0x1b8 /usr/local/xenon/xenon/lib/32/libc.a(lib_a-memset.o)
 .debug_loc     0x00000000000181d4       0x97 /usr/local/xenon/xenon/lib/32/libc.a(lib_a-printf.o)
 .debug_loc     0x000000000001826b       0x81 /usr/local/xenon/xenon/lib/32/libc.a(lib_a-putchar.o)
 .debug_loc     0x00000000000182ec      0x10e /usr/local/xenon/xenon/lib/32/libc.a(lib_a-puts.o)
 .debug_loc     0x00000000000183fa      0x12b /usr/local/xenon/xenon/lib/32/libc.a(lib_a-reent.o)
 .debug_loc     0x0000000000018525       0x66 /usr/local/xenon/xenon/lib/32/libc.a(lib_a-sbrkr.o)
 .debug_loc     0x000000000001858b       0xc6 /usr/local/xenon/xenon/lib/32/libc.a(lib_a-sprintf.o)
 .debug_loc     0x0000000000018651      0x35b /usr/local/xenon/xenon/lib/32/libc.a(lib_a-stdio.o)
 .debug_loc     0x00000000000189ac       0xa0 /usr/local/xenon/xenon/lib/32/libc.a(lib_a-strcat.o)
 .debug_loc     0x0000000000018a4c      0x118 /usr/local/xenon/xenon/lib/32/libc.a(lib_a-strcmp.o)
 .debug_loc     0x0000000000018b64       0xe4 /usr/local/xenon/xenon/lib/32/libc.a(lib_a-strcpy.o)
 .debug_loc     0x0000000000018c48       0xcd /usr/local/xenon/xenon/lib/32/libc.a(lib_a-strlen.o)
 .debug_loc     0x0000000000018d15     0x2463 /usr/local/xenon/xenon/lib/32/libc.a(lib_a-svfprintf.o)
 .debug_loc     0x000000000001b178     0x17bc /usr/local/xenon/xenon/lib/32/libc.a(lib_a-vfiprintf.o)
 .debug_loc     0x000000000001c934     0x25e1 /usr/local/xenon/xenon/lib/32/libc.a(lib_a-vfprintf.o)
 .debug_loc     0x000000000001ef15      0x113 /usr/local/xenon/xenon/lib/32/libc.a(lib_a-vsprintf.o)
 .debug_loc     0x000000000001f028      0x12d /usr/local/xenon/xenon/lib/32/libc.a(lib_a-wctomb_r.o)
 .debug_loc     0x000000000001f155       0xc9 /usr/local/xenon/xenon/lib/32/libc.a(lib_a-writer.o)
 .debug_loc     0x000000000001f21e       0xa2 /usr/local/xenon/xenon/lib/32/libc.a(lib_a-wsetup.o)
 .debug_loc     0x000000000001f2c0      0x1e1 /usr/local/xenon/xenon/lib/32/libc.a(lib_a-__call_atexit.o)
 .debug_loc     0x000000000001f4a1       0x66 /usr/local/xenon/xenon/lib/32/libc.a(lib_a-closer.o)
 .debug_loc     0x000000000001f507     0x23a0 /usr/local/xenon/xenon/lib/32/libc.a(lib_a-dtoa.o)
 .debug_loc     0x00000000000218a7      0x385 /usr/local/xenon/xenon/lib/32/libc.a(lib_a-fputwc.o)
 .debug_loc     0x0000000000021c2c      0x67f /usr/local/xenon/xenon/lib/32/libc.a(lib_a-fvwrite.o)
 .debug_loc     0x00000000000222ab       0x66 /usr/local/xenon/xenon/lib/32/libc.a(lib_a-isattyr.o)
 .debug_loc     0x0000000000022311       0x63 /usr/local/xenon/xenon/lib/32/libc.a(lib_a-localeconv.o)
 .debug_loc     0x0000000000022374       0xc9 /usr/local/xenon/xenon/lib/32/libc.a(lib_a-lseekr.o)
 .debug_loc     0x000000000002243d      0x17a /usr/local/xenon/xenon/lib/32/libc.a(lib_a-memchr.o)
 .debug_loc     0x00000000000225b7      0x2c3 /usr/local/xenon/xenon/lib/32/libc.a(lib_a-memmove.o)
 .debug_loc     0x000000000002287a     0x1ee7 /usr/local/xenon/xenon/lib/32/libc.a(lib_a-mprec.o)
 .debug_loc     0x0000000000024761      0x273 /usr/local/xenon/xenon/lib/32/libc.a(lib_a-putc.o)
 .debug_loc     0x00000000000249d4       0xc9 /usr/local/xenon/xenon/lib/32/libc.a(lib_a-readr.o)
 .debug_loc     0x0000000000024a9d      0xf08 /usr/local/xenon/xenon/lib/32/libc.a(lib_a-reallocr.o)
 .debug_loc     0x00000000000259a5     0x11b0 /usr/local/xenon/xenon/lib/32/libc.a(lib_a-svfiprintf.o)
 .debug_loc     0x0000000000026b55      0x1a7 /usr/local/xenon/xenon/lib/32/libc.a(lib_a-wbuf.o)
 .debug_loc     0x0000000000026cfc      0x2b3 /usr/local/xenon/xenon/lib/32/libc.a(lib_a-wcrtomb.o)
 .debug_loc     0x0000000000026faf      0x20b /usr/local/xenon/xenon/lib/32/libc.a(lib_a-callocr.o)
 .debug_loc     0x00000000000271ba      0xb8f /usr/local/xenon/lib/gcc/xenon/6.3.0/32/libgcc.a(_udivdi3.o)
 .debug_loc     0x0000000000027d49      0xa6e /usr/local/xenon/lib/gcc/xenon/6.3.0/32/libgcc.a(_umoddi3.o)

.debug_aranges  0x0000000000000000     0x1720
 .debug_aranges
                0x0000000000000000       0x30 /usr/local/xenon/lib/gcc/xenon/6.3.0/../../../../xenon/lib/../lib/crt1.o
 .debug_aranges
                0x0000000000000030       0x40 main.o
 .debug_aranges
                0x0000000000000070       0x20 /usr/local/xenon/usr/lib/libxenon.a(argv.o)
 .debug_aranges
                0x0000000000000090       0x60 /usr/local/xenon/usr/lib/libxenon.a(console.o)
 .debug_aranges
                0x00000000000000f0       0x30 /usr/local/xenon/usr/lib/libxenon.a(input.o)
 .debug_aranges
                0x0000000000000120      0x258 /usr/local/xenon/usr/lib/libxenon.a(newlib.o)
 .debug_aranges
                0x0000000000000378       0x50 /usr/local/xenon/usr/lib/libxenon.a(xenon_syscalls.o)
 .debug_aranges
                0x00000000000003c8       0x58 /usr/local/xenon/usr/lib/libxenon.a(lib_malloc.o)
 .debug_aranges
                0x0000000000000420       0x28 /usr/local/xenon/usr/lib/libxenon.a(c_except.o)
 .debug_aranges
                0x0000000000000448       0x40 /usr/local/xenon/usr/lib/libxenon.a(vm.o)
 .debug_aranges
                0x0000000000000488       0x38 /usr/local/xenon/usr/lib/libxenon.a(time.o)
 .debug_aranges
                0x00000000000004c0       0x60 /usr/local/xenon/usr/lib/libxenon.a(usbctrl.o)
 .debug_aranges
                0x0000000000000520      0x110 /usr/local/xenon/usr/lib/libxenon.a(usbd.o)
 .debug_aranges
                0x0000000000000630       0x20 /usr/local/xenon/usr/lib/libxenon.a(usbdevs.o)
 .debug_aranges
                0x0000000000000650       0x30 /usr/local/xenon/usr/lib/libxenon.a(usbhid.o)
 .debug_aranges
                0x0000000000000680       0x78 /usr/local/xenon/usr/lib/libxenon.a(usbhub.o)
 .debug_aranges
                0x00000000000006f8       0x38 /usr/local/xenon/usr/lib/libxenon.a(usbmain.o)
 .debug_aranges
                0x0000000000000730      0x228 /usr/local/xenon/usr/lib/libxenon.a(tinyehci.o)
 .debug_aranges
                0x0000000000000958       0x38 /usr/local/xenon/usr/lib/libxenon.a(debug.o)
 .debug_aranges
                0x0000000000000990       0xb8 /usr/local/xenon/usr/lib/libxenon.a(xenon_smc.o)
 .debug_aranges
                0x0000000000000a48       0x78 /usr/local/xenon/usr/lib/libxenon.a(xenon_power.o)
 .debug_aranges
                0x0000000000000ac0       0x38 /usr/local/xenon/usr/lib/libxenon.a(xenon_uart.o)
 .debug_aranges
                0x0000000000000af8       0x38 /usr/local/xenon/usr/lib/libxenon.a(xenon_config.o)
 .debug_aranges
                0x0000000000000b30       0x90 /usr/local/xenon/usr/lib/libxenon.a(xenos.o)
 .debug_aranges
                0x0000000000000bc0       0x38 /usr/local/xenon/usr/lib/libxenon.a(xenos_edid.o)
 .debug_aranges
                0x0000000000000bf8       0x40 /usr/local/xenon/usr/lib/libxenon.a(enet.o)
 .debug_aranges
                0x0000000000000c38       0xa0 /usr/local/xenon/usr/lib/libxenon.a(xb360.o)
 .debug_aranges
                0x0000000000000cd8       0x28 /usr/local/xenon/usr/lib/libxenon.a(dummy.o)
 .debug_aranges
                0x0000000000000d00       0x98 /usr/local/xenon/usr/lib/libxenon.a(ohci.o)
 .debug_aranges
                0x0000000000000d98       0x48 /usr/local/xenon/usr/lib/libxenon.a(usbdebug.o)
 .debug_aranges
                0x0000000000000de0       0x58 /usr/local/xenon/usr/lib/libxenon.a(usb_os.o)
 .debug_aranges
                0x0000000000000e38       0x30 /usr/local/xenon/usr/lib/libxenon.a(xenon_gpio.o)
 .debug_aranges
                0x0000000000000e68      0x100 /usr/local/xenon/usr/lib/libxenon.a(xenon_sfcx.o)
 .debug_aranges
                0x0000000000000f68       0x48 /usr/local/xenon/usr/lib/libxenon.a(lib_queue.o)
 .debug_aranges
                0x0000000000000fb0       0x20 /usr/local/xenon/lib/gcc/xenon/6.3.0/32/libgcc.a(crtsavgpr.o)
 .debug_aranges
                0x0000000000000fd0       0x20 /usr/local/xenon/lib/gcc/xenon/6.3.0/32/libgcc.a(crtresxgpr.o)
 .debug_aranges
                0x0000000000000ff0       0x20 /usr/local/xenon/lib/gcc/xenon/6.3.0/32/libgcc.a(unwind-dw2-fde-dip.o)
 .debug_aranges
                0x0000000000001010       0x20 /usr/local/xenon/xenon/lib/32/libc.a(lib_a-assert.o)
 .debug_aranges
                0x0000000000001030       0x20 /usr/local/xenon/xenon/lib/32/libc.a(lib_a-exit.o)
 .debug_aranges
                0x0000000000001050       0x20 /usr/local/xenon/xenon/lib/32/libc.a(lib_a-fclose.o)
 .debug_aranges
                0x0000000000001070       0x20 /usr/local/xenon/xenon/lib/32/libc.a(lib_a-fflush.o)
 .debug_aranges
                0x0000000000001090       0x20 /usr/local/xenon/xenon/lib/32/libc.a(lib_a-findfp.o)
 .debug_aranges
                0x00000000000010b0       0x20 /usr/local/xenon/xenon/lib/32/libc.a(lib_a-fiprintf.o)
 .debug_aranges
                0x00000000000010d0       0x20 /usr/local/xenon/xenon/lib/32/libc.a(lib_a-freer.o)
 .debug_aranges
                0x00000000000010f0       0x20 /usr/local/xenon/xenon/lib/32/libc.a(lib_a-fstatr.o)
 .debug_aranges
                0x0000000000001110       0x20 /usr/local/xenon/xenon/lib/32/libc.a(lib_a-fwalk.o)
 .debug_aranges
                0x0000000000001130       0x18 /usr/local/xenon/xenon/lib/32/libc.a(lib_a-impure.o)
 .debug_aranges
                0x0000000000001148       0x20 /usr/local/xenon/xenon/lib/32/libc.a(lib_a-locale.o)
 .debug_aranges
                0x0000000000001168       0x20 /usr/local/xenon/xenon/lib/32/libc.a(lib_a-makebuf.o)
 .debug_aranges
                0x0000000000001188       0x20 /usr/local/xenon/xenon/lib/32/libc.a(lib_a-malloc.o)
 .debug_aranges
                0x00000000000011a8       0x20 /usr/local/xenon/xenon/lib/32/libc.a(lib_a-mallocr.o)
 .debug_aranges
                0x00000000000011c8       0x20 /usr/local/xenon/xenon/lib/32/libc.a(lib_a-mbtowc_r.o)
 .debug_aranges
                0x00000000000011e8       0x20 /usr/local/xenon/xenon/lib/32/libc.a(lib_a-memcmp.o)
 .debug_aranges
                0x0000000000001208       0x20 /usr/local/xenon/xenon/lib/32/libc.a(lib_a-memcpy.o)
 .debug_aranges
                0x0000000000001228       0x20 /usr/local/xenon/xenon/lib/32/libc.a(lib_a-memset.o)
 .debug_aranges
                0x0000000000001248       0x20 /usr/local/xenon/xenon/lib/32/libc.a(lib_a-printf.o)
 .debug_aranges
                0x0000000000001268       0x20 /usr/local/xenon/xenon/lib/32/libc.a(lib_a-putchar.o)
 .debug_aranges
                0x0000000000001288       0x20 /usr/local/xenon/xenon/lib/32/libc.a(lib_a-puts.o)
 .debug_aranges
                0x00000000000012a8       0x20 /usr/local/xenon/xenon/lib/32/libc.a(lib_a-reent.o)
 .debug_aranges
                0x00000000000012c8       0x20 /usr/local/xenon/xenon/lib/32/libc.a(lib_a-sbrkr.o)
 .debug_aranges
                0x00000000000012e8       0x20 /usr/local/xenon/xenon/lib/32/libc.a(lib_a-sprintf.o)
 .debug_aranges
                0x0000000000001308       0x20 /usr/local/xenon/xenon/lib/32/libc.a(lib_a-stdio.o)
 .debug_aranges
                0x0000000000001328       0x20 /usr/local/xenon/xenon/lib/32/libc.a(lib_a-strcat.o)
 .debug_aranges
                0x0000000000001348       0x20 /usr/local/xenon/xenon/lib/32/libc.a(lib_a-strcmp.o)
 .debug_aranges
                0x0000000000001368       0x20 /usr/local/xenon/xenon/lib/32/libc.a(lib_a-strcpy.o)
 .debug_aranges
                0x0000000000001388       0x20 /usr/local/xenon/xenon/lib/32/libc.a(lib_a-strlen.o)
 .debug_aranges
                0x00000000000013a8       0x20 /usr/local/xenon/xenon/lib/32/libc.a(lib_a-svfprintf.o)
 .debug_aranges
                0x00000000000013c8       0x20 /usr/local/xenon/xenon/lib/32/libc.a(lib_a-vfiprintf.o)
 .debug_aranges
                0x00000000000013e8       0x20 /usr/local/xenon/xenon/lib/32/libc.a(lib_a-vfprintf.o)
 .debug_aranges
                0x0000000000001408       0x20 /usr/local/xenon/xenon/lib/32/libc.a(lib_a-vsprintf.o)
 .debug_aranges
                0x0000000000001428       0x20 /usr/local/xenon/xenon/lib/32/libc.a(lib_a-wctomb_r.o)
 .debug_aranges
                0x0000000000001448       0x20 /usr/local/xenon/xenon/lib/32/libc.a(lib_a-writer.o)
 .debug_aranges
                0x0000000000001468       0x20 /usr/local/xenon/xenon/lib/32/libc.a(lib_a-wsetup.o)
 .debug_aranges
                0x0000000000001488       0x20 /usr/local/xenon/xenon/lib/32/libc.a(lib_a-__call_atexit.o)
 .debug_aranges
                0x00000000000014a8       0x20 /usr/local/xenon/xenon/lib/32/libc.a(lib_a-closer.o)
 .debug_aranges
                0x00000000000014c8       0x18 /usr/local/xenon/xenon/lib/32/libc.a(lib_a-ctype_.o)
 .debug_aranges
                0x00000000000014e0       0x20 /usr/local/xenon/xenon/lib/32/libc.a(lib_a-dtoa.o)
 .debug_aranges
                0x0000000000001500       0x20 /usr/local/xenon/xenon/lib/32/libc.a(lib_a-fputwc.o)
 .debug_aranges
                0x0000000000001520       0x20 /usr/local/xenon/xenon/lib/32/libc.a(lib_a-fvwrite.o)
 .debug_aranges
                0x0000000000001540       0x20 /usr/local/xenon/xenon/lib/32/libc.a(lib_a-isattyr.o)
 .debug_aranges
                0x0000000000001560       0x20 /usr/local/xenon/xenon/lib/32/libc.a(lib_a-localeconv.o)
 .debug_aranges
                0x0000000000001580       0x20 /usr/local/xenon/xenon/lib/32/libc.a(lib_a-lseekr.o)
 .debug_aranges
                0x00000000000015a0       0x20 /usr/local/xenon/xenon/lib/32/libc.a(lib_a-memchr.o)
 .debug_aranges
                0x00000000000015c0       0x20 /usr/local/xenon/xenon/lib/32/libc.a(lib_a-memmove.o)
 .debug_aranges
                0x00000000000015e0       0x20 /usr/local/xenon/xenon/lib/32/libc.a(lib_a-mprec.o)
 .debug_aranges
                0x0000000000001600       0x20 /usr/local/xenon/xenon/lib/32/libc.a(lib_a-putc.o)
 .debug_aranges
                0x0000000000001620       0x20 /usr/local/xenon/xenon/lib/32/libc.a(lib_a-readr.o)
 .debug_aranges
                0x0000000000001640       0x20 /usr/local/xenon/xenon/lib/32/libc.a(lib_a-reallocr.o)
 .debug_aranges
                0x0000000000001660       0x20 /usr/local/xenon/xenon/lib/32/libc.a(lib_a-svfiprintf.o)
 .debug_aranges
                0x0000000000001680       0x20 /usr/local/xenon/xenon/lib/32/libc.a(lib_a-wbuf.o)
 .debug_aranges
                0x00000000000016a0       0x20 /usr/local/xenon/xenon/lib/32/libc.a(lib_a-wcrtomb.o)
 .debug_aranges
                0x00000000000016c0       0x20 /usr/local/xenon/xenon/lib/32/libc.a(lib_a-callocr.o)
 .debug_aranges
                0x00000000000016e0       0x20 /usr/local/xenon/lib/gcc/xenon/6.3.0/32/libgcc.a(_udivdi3.o)
 .debug_aranges
                0x0000000000001700       0x20 /usr/local/xenon/lib/gcc/xenon/6.3.0/32/libgcc.a(_umoddi3.o)

.debug_ranges   0x0000000000000000     0x35f8
 .debug_ranges  0x0000000000000000       0x20 /usr/local/xenon/lib/gcc/xenon/6.3.0/../../../../xenon/lib/../lib/crt1.o
 .debug_ranges  0x0000000000000020       0x78 main.o
 .debug_ranges  0x0000000000000098       0x10 /usr/local/xenon/usr/lib/libxenon.a(argv.o)
 .debug_ranges  0x00000000000000a8       0xb0 /usr/local/xenon/usr/lib/libxenon.a(console.o)
 .debug_ranges  0x0000000000000158       0x20 /usr/local/xenon/usr/lib/libxenon.a(input.o)
 .debug_ranges  0x0000000000000178      0x2f0 /usr/local/xenon/usr/lib/libxenon.a(newlib.o)
 .debug_ranges  0x0000000000000468       0x40 /usr/local/xenon/usr/lib/libxenon.a(xenon_syscalls.o)
 .debug_ranges  0x00000000000004a8       0x68 /usr/local/xenon/usr/lib/libxenon.a(lib_malloc.o)
 .debug_ranges  0x0000000000000510       0x60 /usr/local/xenon/usr/lib/libxenon.a(c_except.o)
 .debug_ranges  0x0000000000000570       0x30 /usr/local/xenon/usr/lib/libxenon.a(vm.o)
 .debug_ranges  0x00000000000005a0       0x28 /usr/local/xenon/usr/lib/libxenon.a(time.o)
 .debug_ranges  0x00000000000005c8      0x198 /usr/local/xenon/usr/lib/libxenon.a(usbctrl.o)
 .debug_ranges  0x0000000000000760      0x118 /usr/local/xenon/usr/lib/libxenon.a(usbd.o)
 .debug_ranges  0x0000000000000878       0x10 /usr/local/xenon/usr/lib/libxenon.a(usbdevs.o)
 .debug_ranges  0x0000000000000888       0x98 /usr/local/xenon/usr/lib/libxenon.a(usbhid.o)
 .debug_ranges  0x0000000000000920       0xe0 /usr/local/xenon/usr/lib/libxenon.a(usbhub.o)
 .debug_ranges  0x0000000000000a00       0xa8 /usr/local/xenon/usr/lib/libxenon.a(usbmain.o)
 .debug_ranges  0x0000000000000aa8      0x690 /usr/local/xenon/usr/lib/libxenon.a(tinyehci.o)
 .debug_ranges  0x0000000000001138       0x28 /usr/local/xenon/usr/lib/libxenon.a(debug.o)
 .debug_ranges  0x0000000000001160       0xc0 /usr/local/xenon/usr/lib/libxenon.a(xenon_smc.o)
 .debug_ranges  0x0000000000001220       0xe8 /usr/local/xenon/usr/lib/libxenon.a(xenon_power.o)
 .debug_ranges  0x0000000000001308       0x28 /usr/local/xenon/usr/lib/libxenon.a(xenon_uart.o)
 .debug_ranges  0x0000000000001330       0x50 /usr/local/xenon/usr/lib/libxenon.a(xenon_config.o)
 .debug_ranges  0x0000000000001380      0x7f0 /usr/local/xenon/usr/lib/libxenon.a(xenos.o)
 .debug_ranges  0x0000000000001b70       0x88 /usr/local/xenon/usr/lib/libxenon.a(xenos_edid.o)
 .debug_ranges  0x0000000000001bf8      0x390 /usr/local/xenon/usr/lib/libxenon.a(enet.o)
 .debug_ranges  0x0000000000001f88       0xd8 /usr/local/xenon/usr/lib/libxenon.a(xb360.o)
 .debug_ranges  0x0000000000002060       0x18 /usr/local/xenon/usr/lib/libxenon.a(dummy.o)
 .debug_ranges  0x0000000000002078      0x290 /usr/local/xenon/usr/lib/libxenon.a(ohci.o)
 .debug_ranges  0x0000000000002308       0x38 /usr/local/xenon/usr/lib/libxenon.a(usbdebug.o)
 .debug_ranges  0x0000000000002340       0x48 /usr/local/xenon/usr/lib/libxenon.a(usb_os.o)
 .debug_ranges  0x0000000000002388       0x20 /usr/local/xenon/usr/lib/libxenon.a(xenon_gpio.o)
 .debug_ranges  0x00000000000023a8      0x248 /usr/local/xenon/usr/lib/libxenon.a(xenon_sfcx.o)
 .debug_ranges  0x00000000000025f0       0x38 /usr/local/xenon/usr/lib/libxenon.a(lib_queue.o)
 .debug_ranges  0x0000000000002628      0x308 /usr/local/xenon/lib/gcc/xenon/6.3.0/32/libgcc.a(unwind-dw2-fde-dip.o)
 .debug_ranges  0x0000000000002930       0x30 /usr/local/xenon/xenon/lib/32/libc.a(lib_a-fclose.o)
 .debug_ranges  0x0000000000002960       0x78 /usr/local/xenon/xenon/lib/32/libc.a(lib_a-fflush.o)
 .debug_ranges  0x00000000000029d8      0x100 /usr/local/xenon/xenon/lib/32/libc.a(lib_a-findfp.o)
 .debug_ranges  0x0000000000002ad8       0x48 /usr/local/xenon/xenon/lib/32/libc.a(lib_a-locale.o)
 .debug_ranges  0x0000000000002b20       0x40 /usr/local/xenon/xenon/lib/32/libc.a(lib_a-makebuf.o)
 .debug_ranges  0x0000000000002b60       0x38 /usr/local/xenon/xenon/lib/32/libc.a(lib_a-mallocr.o)
 .debug_ranges  0x0000000000002b98       0x18 /usr/local/xenon/xenon/lib/32/libc.a(lib_a-mbtowc_r.o)
 .debug_ranges  0x0000000000002bb0       0x28 /usr/local/xenon/xenon/lib/32/libc.a(lib_a-puts.o)
 .debug_ranges  0x0000000000002bd8      0x128 /usr/local/xenon/xenon/lib/32/libc.a(lib_a-svfprintf.o)
 .debug_ranges  0x0000000000002d00      0x1b0 /usr/local/xenon/xenon/lib/32/libc.a(lib_a-vfiprintf.o)
 .debug_ranges  0x0000000000002eb0      0x168 /usr/local/xenon/xenon/lib/32/libc.a(lib_a-vfprintf.o)
 .debug_ranges  0x0000000000003018       0x18 /usr/local/xenon/xenon/lib/32/libc.a(lib_a-wctomb_r.o)
 .debug_ranges  0x0000000000003030       0x20 /usr/local/xenon/xenon/lib/32/libc.a(lib_a-wsetup.o)
 .debug_ranges  0x0000000000003050       0x20 /usr/local/xenon/xenon/lib/32/libc.a(lib_a-__call_atexit.o)
 .debug_ranges  0x0000000000003070       0x50 /usr/local/xenon/xenon/lib/32/libc.a(lib_a-fputwc.o)
 .debug_ranges  0x00000000000030c0       0x28 /usr/local/xenon/xenon/lib/32/libc.a(lib_a-fvwrite.o)
 .debug_ranges  0x00000000000030e8       0x30 /usr/local/xenon/xenon/lib/32/libc.a(lib_a-localeconv.o)
 .debug_ranges  0x0000000000003118       0x98 /usr/local/xenon/xenon/lib/32/libc.a(lib_a-mprec.o)
 .debug_ranges  0x00000000000031b0       0x78 /usr/local/xenon/xenon/lib/32/libc.a(lib_a-putc.o)
 .debug_ranges  0x0000000000003228      0x138 /usr/local/xenon/xenon/lib/32/libc.a(lib_a-reallocr.o)
 .debug_ranges  0x0000000000003360       0x48 /usr/local/xenon/xenon/lib/32/libc.a(lib_a-svfiprintf.o)
 .debug_ranges  0x00000000000033a8       0x28 /usr/local/xenon/xenon/lib/32/libc.a(lib_a-wbuf.o)
 .debug_ranges  0x00000000000033d0       0x78 /usr/local/xenon/xenon/lib/32/libc.a(lib_a-wcrtomb.o)
 .debug_ranges  0x0000000000003448       0x38 /usr/local/xenon/xenon/lib/32/libc.a(lib_a-callocr.o)
 .debug_ranges  0x0000000000003480       0xc0 /usr/local/xenon/lib/gcc/xenon/6.3.0/32/libgcc.a(_udivdi3.o)
 .debug_ranges  0x0000000000003540       0xb8 /usr/local/xenon/lib/gcc/xenon/6.3.0/32/libgcc.a(_umoddi3.o)

.debug_line     0x0000000000000000    0x12165
 .debug_line    0x0000000000000000       0xa7 /usr/local/xenon/lib/gcc/xenon/6.3.0/../../../../xenon/lib/../lib/crt1.o
 .debug_line    0x00000000000000a7      0x48d main.o
 .debug_line    0x0000000000000534       0x66 /usr/local/xenon/usr/lib/libxenon.a(argv.o)
 .debug_line    0x000000000000059a      0x313 /usr/local/xenon/usr/lib/libxenon.a(console.o)
 .debug_line    0x00000000000008ad       0xfc /usr/local/xenon/usr/lib/libxenon.a(input.o)
 .debug_line    0x00000000000009a9      0xafd /usr/local/xenon/usr/lib/libxenon.a(newlib.o)
 .debug_line    0x00000000000014a6      0x37c /usr/local/xenon/usr/lib/libxenon.a(xenon_syscalls.o)
 .debug_line    0x0000000000001822      0x2f1 /usr/local/xenon/usr/lib/libxenon.a(lib_malloc.o)
 .debug_line    0x0000000000001b13      0x2a0 /usr/local/xenon/usr/lib/libxenon.a(c_except.o)
 .debug_line    0x0000000000001db3      0x208 /usr/local/xenon/usr/lib/libxenon.a(vm.o)
 .debug_line    0x0000000000001fbb      0x131 /usr/local/xenon/usr/lib/libxenon.a(time.o)
 .debug_line    0x00000000000020ec      0x471 /usr/local/xenon/usr/lib/libxenon.a(usbctrl.o)
 .debug_line    0x000000000000255d      0x617 /usr/local/xenon/usr/lib/libxenon.a(usbd.o)
 .debug_line    0x0000000000002b74      0x20c /usr/local/xenon/usr/lib/libxenon.a(usbdevs.o)
 .debug_line    0x0000000000002d80      0x262 /usr/local/xenon/usr/lib/libxenon.a(usbhid.o)
 .debug_line    0x0000000000002fe2      0x422 /usr/local/xenon/usr/lib/libxenon.a(usbhub.o)
 .debug_line    0x0000000000003404      0x2cd /usr/local/xenon/usr/lib/libxenon.a(usbmain.o)
 .debug_line    0x00000000000036d1     0x13a1 /usr/local/xenon/usr/lib/libxenon.a(tinyehci.o)
 .debug_line    0x0000000000004a72      0x23e /usr/local/xenon/usr/lib/libxenon.a(debug.o)
 .debug_line    0x0000000000004cb0      0x47b /usr/local/xenon/usr/lib/libxenon.a(xenon_smc.o)
 .debug_line    0x000000000000512b      0x4cd /usr/local/xenon/usr/lib/libxenon.a(xenon_power.o)
 .debug_line    0x00000000000055f8      0x122 /usr/local/xenon/usr/lib/libxenon.a(xenon_uart.o)
 .debug_line    0x000000000000571a      0x256 /usr/local/xenon/usr/lib/libxenon.a(xenon_config.o)
 .debug_line    0x0000000000005970      0x994 /usr/local/xenon/usr/lib/libxenon.a(xenos.o)
 .debug_line    0x0000000000006304      0x2e0 /usr/local/xenon/usr/lib/libxenon.a(xenos_edid.o)
 .debug_line    0x00000000000065e4      0x613 /usr/local/xenon/usr/lib/libxenon.a(enet.o)
 .debug_line    0x0000000000006bf7      0x568 /usr/local/xenon/usr/lib/libxenon.a(xb360.o)
 .debug_line    0x000000000000715f      0x18f /usr/local/xenon/usr/lib/libxenon.a(dummy.o)
 .debug_line    0x00000000000072ee      0x8c1 /usr/local/xenon/usr/lib/libxenon.a(ohci.o)
 .debug_line    0x0000000000007baf      0x3c9 /usr/local/xenon/usr/lib/libxenon.a(usbdebug.o)
 .debug_line    0x0000000000007f78      0x240 /usr/local/xenon/usr/lib/libxenon.a(usb_os.o)
 .debug_line    0x00000000000081b8      0x127 /usr/local/xenon/usr/lib/libxenon.a(xenon_gpio.o)
 .debug_line    0x00000000000082df      0x7d3 /usr/local/xenon/usr/lib/libxenon.a(xenon_sfcx.o)
 .debug_line    0x0000000000008ab2      0x172 /usr/local/xenon/usr/lib/libxenon.a(lib_queue.o)
 .debug_line    0x0000000000008c24       0x78 /usr/local/xenon/lib/gcc/xenon/6.3.0/32/libgcc.a(crtsavgpr.o)
 .debug_line    0x0000000000008c9c       0x7c /usr/local/xenon/lib/gcc/xenon/6.3.0/32/libgcc.a(crtresxgpr.o)
 .debug_line    0x0000000000008d18      0x74e /usr/local/xenon/lib/gcc/xenon/6.3.0/32/libgcc.a(unwind-dw2-fde-dip.o)
 .debug_line    0x0000000000009466      0x177 /usr/local/xenon/xenon/lib/32/libc.a(lib_a-assert.o)
 .debug_line    0x00000000000095dd      0x164 /usr/local/xenon/xenon/lib/32/libc.a(lib_a-exit.o)
 .debug_line    0x0000000000009741      0x19f /usr/local/xenon/xenon/lib/32/libc.a(lib_a-fclose.o)
 .debug_line    0x00000000000098e0      0x295 /usr/local/xenon/xenon/lib/32/libc.a(lib_a-fflush.o)
 .debug_line    0x0000000000009b75      0x2fd /usr/local/xenon/xenon/lib/32/libc.a(lib_a-findfp.o)
 .debug_line    0x0000000000009e72      0x16c /usr/local/xenon/xenon/lib/32/libc.a(lib_a-fiprintf.o)
 .debug_line    0x0000000000009fde      0x278 /usr/local/xenon/xenon/lib/32/libc.a(lib_a-freer.o)
 .debug_line    0x000000000000a256      0x1e3 /usr/local/xenon/xenon/lib/32/libc.a(lib_a-fstatr.o)
 .debug_line    0x000000000000a439      0x1ce /usr/local/xenon/xenon/lib/32/libc.a(lib_a-fwalk.o)
 .debug_line    0x000000000000a607       0xf1 /usr/local/xenon/xenon/lib/32/libc.a(lib_a-impure.o)
 .debug_line    0x000000000000a6f8      0x224 /usr/local/xenon/xenon/lib/32/libc.a(lib_a-locale.o)
 .debug_line    0x000000000000a91c      0x296 /usr/local/xenon/xenon/lib/32/libc.a(lib_a-makebuf.o)
 .debug_line    0x000000000000abb2      0x15a /usr/local/xenon/xenon/lib/32/libc.a(lib_a-malloc.o)
 .debug_line    0x000000000000ad0c      0x3b5 /usr/local/xenon/xenon/lib/32/libc.a(lib_a-mallocr.o)
 .debug_line    0x000000000000b0c1      0x200 /usr/local/xenon/xenon/lib/32/libc.a(lib_a-mbtowc_r.o)
 .debug_line    0x000000000000b2c1      0x162 /usr/local/xenon/xenon/lib/32/libc.a(lib_a-memcmp.o)
 .debug_line    0x000000000000b423      0x16d /usr/local/xenon/xenon/lib/32/libc.a(lib_a-memcpy.o)
 .debug_line    0x000000000000b590      0x1eb /usr/local/xenon/xenon/lib/32/libc.a(lib_a-memset.o)
 .debug_line    0x000000000000b77b      0x196 /usr/local/xenon/xenon/lib/32/libc.a(lib_a-printf.o)
 .debug_line    0x000000000000b911      0x173 /usr/local/xenon/xenon/lib/32/libc.a(lib_a-putchar.o)
 .debug_line    0x000000000000ba84      0x1c0 /usr/local/xenon/xenon/lib/32/libc.a(lib_a-puts.o)
 .debug_line    0x000000000000bc44      0x189 /usr/local/xenon/xenon/lib/32/libc.a(lib_a-reent.o)
 .debug_line    0x000000000000bdcd      0x15f /usr/local/xenon/xenon/lib/32/libc.a(lib_a-sbrkr.o)
 .debug_line    0x000000000000bf2c      0x1b7 /usr/local/xenon/xenon/lib/32/libc.a(lib_a-sprintf.o)
 .debug_line    0x000000000000c0e3      0x1d8 /usr/local/xenon/xenon/lib/32/libc.a(lib_a-stdio.o)
 .debug_line    0x000000000000c2bb      0x15e /usr/local/xenon/xenon/lib/32/libc.a(lib_a-strcat.o)
 .debug_line    0x000000000000c419      0x161 /usr/local/xenon/xenon/lib/32/libc.a(lib_a-strcmp.o)
 .debug_line    0x000000000000c57a      0x15b /usr/local/xenon/xenon/lib/32/libc.a(lib_a-strcpy.o)
 .debug_line    0x000000000000c6d5      0x157 /usr/local/xenon/xenon/lib/32/libc.a(lib_a-strlen.o)
 .debug_line    0x000000000000c82c      0x9f8 /usr/local/xenon/xenon/lib/32/libc.a(lib_a-svfprintf.o)
 .debug_line    0x000000000000d224      0x7f4 /usr/local/xenon/xenon/lib/32/libc.a(lib_a-vfiprintf.o)
 .debug_line    0x000000000000da18      0xa5e /usr/local/xenon/xenon/lib/32/libc.a(lib_a-vfprintf.o)
 .debug_line    0x000000000000e476      0x191 /usr/local/xenon/xenon/lib/32/libc.a(lib_a-vsprintf.o)
 .debug_line    0x000000000000e607      0x1f0 /usr/local/xenon/xenon/lib/32/libc.a(lib_a-wctomb_r.o)
 .debug_line    0x000000000000e7f7      0x161 /usr/local/xenon/xenon/lib/32/libc.a(lib_a-writer.o)
 .debug_line    0x000000000000e958      0x1e9 /usr/local/xenon/xenon/lib/32/libc.a(lib_a-wsetup.o)
 .debug_line    0x000000000000eb41      0x1b4 /usr/local/xenon/xenon/lib/32/libc.a(lib_a-__call_atexit.o)
 .debug_line    0x000000000000ecf5      0x160 /usr/local/xenon/xenon/lib/32/libc.a(lib_a-closer.o)
 .debug_line    0x000000000000ee55      0x165 /usr/local/xenon/xenon/lib/32/libc.a(lib_a-ctype_.o)
 .debug_line    0x000000000000efba      0x76c /usr/local/xenon/xenon/lib/32/libc.a(lib_a-dtoa.o)
 .debug_line    0x000000000000f726      0x1ff /usr/local/xenon/xenon/lib/32/libc.a(lib_a-fputwc.o)
 .debug_line    0x000000000000f925      0x2fc /usr/local/xenon/xenon/lib/32/libc.a(lib_a-fvwrite.o)
 .debug_line    0x000000000000fc21      0x161 /usr/local/xenon/xenon/lib/32/libc.a(lib_a-isattyr.o)
 .debug_line    0x000000000000fd82      0x1a3 /usr/local/xenon/xenon/lib/32/libc.a(lib_a-localeconv.o)
 .debug_line    0x000000000000ff25      0x161 /usr/local/xenon/xenon/lib/32/libc.a(lib_a-lseekr.o)
 .debug_line    0x0000000000010086      0x17b /usr/local/xenon/xenon/lib/32/libc.a(lib_a-memchr.o)
 .debug_line    0x0000000000010201      0x1f2 /usr/local/xenon/xenon/lib/32/libc.a(lib_a-memmove.o)
 .debug_line    0x00000000000103f3      0x7a3 /usr/local/xenon/xenon/lib/32/libc.a(lib_a-mprec.o)
 .debug_line    0x0000000000010b96      0x1ef /usr/local/xenon/xenon/lib/32/libc.a(lib_a-putc.o)
 .debug_line    0x0000000000010d85      0x160 /usr/local/xenon/xenon/lib/32/libc.a(lib_a-readr.o)
 .debug_line    0x0000000000010ee5      0x29a /usr/local/xenon/xenon/lib/32/libc.a(lib_a-reallocr.o)
 .debug_line    0x000000000001117f      0x74e /usr/local/xenon/xenon/lib/32/libc.a(lib_a-svfiprintf.o)
 .debug_line    0x00000000000118cd      0x1f3 /usr/local/xenon/xenon/lib/32/libc.a(lib_a-wbuf.o)
 .debug_line    0x0000000000011ac0      0x23e /usr/local/xenon/xenon/lib/32/libc.a(lib_a-wcrtomb.o)
 .debug_line    0x0000000000011cfe      0x151 /usr/local/xenon/xenon/lib/32/libc.a(lib_a-callocr.o)
 .debug_line    0x0000000000011e4f      0x189 /usr/local/xenon/lib/gcc/xenon/6.3.0/32/libgcc.a(_udivdi3.o)
 .debug_line    0x0000000000011fd8      0x18d /usr/local/xenon/lib/gcc/xenon/6.3.0/32/libgcc.a(_umoddi3.o)

.debug_str      0x0000000000000000     0xfa16
 .debug_str     0x0000000000000000      0x1c4 /usr/local/xenon/lib/gcc/xenon/6.3.0/../../../../xenon/lib/../lib/crt1.o
                                        0x1fe (size before relaxing)
 .debug_str     0x00000000000001c4      0x9fe main.o
                                        0xce6 (size before relaxing)
 .debug_str     0x0000000000000bc2       0x1b /usr/local/xenon/usr/lib/libxenon.a(argv.o)
                                        0x18b (size before relaxing)
 .debug_str     0x0000000000000bdd      0x19b /usr/local/xenon/usr/lib/libxenon.a(console.o)
                                        0x79c (size before relaxing)
 .debug_str     0x0000000000000d78       0x59 /usr/local/xenon/usr/lib/libxenon.a(input.o)
                                        0x21b (size before relaxing)
 .debug_str     0x0000000000000dd1      0x5b8 /usr/local/xenon/usr/lib/libxenon.a(newlib.o)
                                        0xfd5 (size before relaxing)
 .debug_str     0x0000000000001389      0x193 /usr/local/xenon/usr/lib/libxenon.a(xenon_syscalls.o)
                                        0xb97 (size before relaxing)
 .debug_str     0x000000000000151c      0x1a1 /usr/local/xenon/usr/lib/libxenon.a(lib_malloc.o)
                                        0x78f (size before relaxing)
 .debug_str     0x00000000000016bd       0xa9 /usr/local/xenon/usr/lib/libxenon.a(c_except.o)
                                        0x6d8 (size before relaxing)
 .debug_str     0x0000000000001766      0x113 /usr/local/xenon/usr/lib/libxenon.a(vm.o)
                                        0x71f (size before relaxing)
 .debug_str     0x0000000000001879       0x34 /usr/local/xenon/usr/lib/libxenon.a(time.o)
                                        0x18e (size before relaxing)
 .debug_str     0x00000000000018ad      0x7da /usr/local/xenon/usr/lib/libxenon.a(usbctrl.o)
                                        0xeec (size before relaxing)
 .debug_str     0x0000000000002087      0x39c /usr/local/xenon/usr/lib/libxenon.a(usbd.o)
                                        0xfaa (size before relaxing)
 .debug_str     0x0000000000002423      0x101 /usr/local/xenon/usr/lib/libxenon.a(usbdevs.o)
                                        0xca3 (size before relaxing)
 .debug_str     0x0000000000002524      0x11a /usr/local/xenon/usr/lib/libxenon.a(usbhid.o)
                                        0xde1 (size before relaxing)
 .debug_str     0x000000000000263e      0x3bf /usr/local/xenon/usr/lib/libxenon.a(usbhub.o)
                                       0x115b (size before relaxing)
 .debug_str     0x00000000000029fd       0xa2 /usr/local/xenon/usr/lib/libxenon.a(usbmain.o)
                                        0xc11 (size before relaxing)
 .debug_str     0x0000000000002a9f      0xda5 /usr/local/xenon/usr/lib/libxenon.a(tinyehci.o)
                                       0x1762 (size before relaxing)
 .debug_str     0x0000000000003844       0x61 /usr/local/xenon/usr/lib/libxenon.a(debug.o)
                                        0x5fa (size before relaxing)
 .debug_str     0x00000000000038a5      0x22b /usr/local/xenon/usr/lib/libxenon.a(xenon_smc.o)
                                        0x838 (size before relaxing)
 .debug_str     0x0000000000003ad0      0x189 /usr/local/xenon/usr/lib/libxenon.a(xenon_power.o)
                                        0x7e2 (size before relaxing)
 .debug_str     0x0000000000003c59       0x32 /usr/local/xenon/usr/lib/libxenon.a(xenon_uart.o)
                                        0x189 (size before relaxing)
 .debug_str     0x0000000000003c8b      0x1f2 /usr/local/xenon/usr/lib/libxenon.a(xenon_config.o)
                                        0x8d2 (size before relaxing)
 .debug_str     0x0000000000003e7d      0x7f1 /usr/local/xenon/usr/lib/libxenon.a(xenos.o)
                                        0xf52 (size before relaxing)
 .debug_str     0x000000000000466e       0xd1 /usr/local/xenon/usr/lib/libxenon.a(xenos_edid.o)
                                        0xab2 (size before relaxing)
 .debug_str     0x000000000000473f      0x48b /usr/local/xenon/usr/lib/libxenon.a(enet.o)
                                        0xb47 (size before relaxing)
 .debug_str     0x0000000000004bca      0x347 /usr/local/xenon/usr/lib/libxenon.a(xb360.o)
                                        0xc56 (size before relaxing)
 .debug_str     0x0000000000004f11       0x34 /usr/local/xenon/usr/lib/libxenon.a(dummy.o)
                                        0xad2 (size before relaxing)
 .debug_str     0x0000000000004f45      0x55d /usr/local/xenon/usr/lib/libxenon.a(ohci.o)
                                       0x13a9 (size before relaxing)
 .debug_str     0x00000000000054a2       0xef /usr/local/xenon/usr/lib/libxenon.a(usbdebug.o)
                                        0xeb3 (size before relaxing)
 .debug_str     0x0000000000005591       0x5b /usr/local/xenon/usr/lib/libxenon.a(usb_os.o)
                                        0x743 (size before relaxing)
 .debug_str     0x00000000000055ec       0x25 /usr/local/xenon/usr/lib/libxenon.a(xenon_gpio.o)
                                        0x1c5 (size before relaxing)
 .debug_str     0x0000000000005611      0x21a /usr/local/xenon/usr/lib/libxenon.a(xenon_sfcx.o)
                                        0xb05 (size before relaxing)
 .debug_str     0x000000000000582b       0x4a /usr/local/xenon/usr/lib/libxenon.a(lib_queue.o)
                                        0x5f3 (size before relaxing)
 .debug_str     0x0000000000005875     0x848d /usr/local/xenon/lib/gcc/xenon/6.3.0/32/libgcc.a(unwind-dw2-fde-dip.o)
                                       0x85ed (size before relaxing)
 .debug_str     0x000000000000dd02       0xe7 /usr/local/xenon/xenon/lib/32/libc.a(lib_a-assert.o)
                                        0x59a (size before relaxing)
 .debug_str     0x000000000000dde9       0x4a /usr/local/xenon/xenon/lib/32/libc.a(lib_a-exit.o)
                                        0x5a6 (size before relaxing)
 .debug_str     0x000000000000de33      0x1c2 /usr/local/xenon/xenon/lib/32/libc.a(lib_a-fclose.o)
                                        0x6f5 (size before relaxing)
 .debug_str     0x000000000000dff5       0x69 /usr/local/xenon/xenon/lib/32/libc.a(lib_a-fflush.o)
                                        0x70c (size before relaxing)
 .debug_str     0x000000000000e05e       0xfb /usr/local/xenon/xenon/lib/32/libc.a(lib_a-findfp.o)
                                        0x7e8 (size before relaxing)
 .debug_str     0x000000000000e159       0x55 /usr/local/xenon/xenon/lib/32/libc.a(lib_a-fiprintf.o)
                                        0x5d7 (size before relaxing)
 .debug_str     0x000000000000e1ae      0x184 /usr/local/xenon/xenon/lib/32/libc.a(lib_a-freer.o)
                                        0x73b (size before relaxing)
 .debug_str     0x000000000000e332       0x82 /usr/local/xenon/xenon/lib/32/libc.a(lib_a-fstatr.o)
                                        0x6f0 (size before relaxing)
 .debug_str     0x000000000000e3b4       0x48 /usr/local/xenon/xenon/lib/32/libc.a(lib_a-fwalk.o)
                                        0x6d0 (size before relaxing)
 .debug_str     0x000000000000e3fc       0x46 /usr/local/xenon/xenon/lib/32/libc.a(lib_a-impure.o)
                                        0x55a (size before relaxing)
 .debug_str     0x000000000000e442      0x365 /usr/local/xenon/xenon/lib/32/libc.a(lib_a-locale.o)
                                        0x954 (size before relaxing)
 .debug_str     0x000000000000e7a7       0x77 /usr/local/xenon/xenon/lib/32/libc.a(lib_a-makebuf.o)
                                        0x84a (size before relaxing)
 .debug_str     0x000000000000e81e       0x47 /usr/local/xenon/xenon/lib/32/libc.a(lib_a-malloc.o)
                                        0x58b (size before relaxing)
 .debug_str     0x000000000000e865       0xaa /usr/local/xenon/xenon/lib/32/libc.a(lib_a-mallocr.o)
                                        0x7c2 (size before relaxing)
 .debug_str     0x000000000000e90f       0xc2 /usr/local/xenon/xenon/lib/32/libc.a(lib_a-mbtowc_r.o)
                                        0x90b (size before relaxing)
 .debug_str     0x000000000000e9d1       0x75 /usr/local/xenon/xenon/lib/32/libc.a(lib_a-memcmp.o)
                                        0x55e (size before relaxing)
 .debug_str     0x000000000000ea46       0x62 /usr/local/xenon/xenon/lib/32/libc.a(lib_a-memcpy.o)
                                        0x585 (size before relaxing)
 .debug_str     0x000000000000eaa8       0x48 /usr/local/xenon/xenon/lib/32/libc.a(lib_a-memset.o)
                                        0x887 (size before relaxing)
 .debug_str     0x000000000000eaf0       0x50 /usr/local/xenon/xenon/lib/32/libc.a(lib_a-printf.o)
                                        0x706 (size before relaxing)
 .debug_str     0x000000000000eb40       0x4e /usr/local/xenon/xenon/lib/32/libc.a(lib_a-putchar.o)
                                        0x6ab (size before relaxing)
 .debug_str     0x000000000000eb8e       0x89 /usr/local/xenon/xenon/lib/32/libc.a(lib_a-puts.o)
                                        0x70f (size before relaxing)
 .debug_str     0x000000000000ec17       0x65 /usr/local/xenon/xenon/lib/32/libc.a(lib_a-reent.o)
                                        0x596 (size before relaxing)
 .debug_str     0x000000000000ec7c       0x39 /usr/local/xenon/xenon/lib/32/libc.a(lib_a-sbrkr.o)
                                        0x59c (size before relaxing)
 .debug_str     0x000000000000ecb5       0x53 /usr/local/xenon/xenon/lib/32/libc.a(lib_a-sprintf.o)
                                        0x70f (size before relaxing)
 .debug_str     0x000000000000ed08       0x90 /usr/local/xenon/xenon/lib/32/libc.a(lib_a-stdio.o)
                                        0x724 (size before relaxing)
 .debug_str     0x000000000000ed98       0x46 /usr/local/xenon/xenon/lib/32/libc.a(lib_a-strcat.o)
                                        0x569 (size before relaxing)
 .debug_str     0x000000000000edde       0x3b /usr/local/xenon/xenon/lib/32/libc.a(lib_a-strcmp.o)
                                        0x557 (size before relaxing)
 .debug_str     0x000000000000ee19       0x3b /usr/local/xenon/xenon/lib/32/libc.a(lib_a-strcpy.o)
                                        0x579 (size before relaxing)
 .debug_str     0x000000000000ee54       0x3b /usr/local/xenon/xenon/lib/32/libc.a(lib_a-strlen.o)
                                        0x571 (size before relaxing)
 .debug_str     0x000000000000ee8f      0x1ad /usr/local/xenon/xenon/lib/32/libc.a(lib_a-svfprintf.o)
                                        0xc61 (size before relaxing)
 .debug_str     0x000000000000f03c       0x3b /usr/local/xenon/xenon/lib/32/libc.a(lib_a-vfiprintf.o)
                                        0xc10 (size before relaxing)
 .debug_str     0x000000000000f077        0x9 /usr/local/xenon/xenon/lib/32/libc.a(lib_a-vfprintf.o)
                                        0xca8 (size before relaxing)
 .debug_str     0x000000000000f080       0x48 /usr/local/xenon/xenon/lib/32/libc.a(lib_a-vsprintf.o)
                                        0x6e9 (size before relaxing)
 .debug_str     0x000000000000f0c8       0x5d /usr/local/xenon/xenon/lib/32/libc.a(lib_a-wctomb_r.o)
                                        0x904 (size before relaxing)
 .debug_str     0x000000000000f125       0x3a /usr/local/xenon/xenon/lib/32/libc.a(lib_a-writer.o)
                                        0x5a0 (size before relaxing)
 .debug_str     0x000000000000f15f       0x3a /usr/local/xenon/xenon/lib/32/libc.a(lib_a-wsetup.o)
                                        0x6de (size before relaxing)
 .debug_str     0x000000000000f199       0x5e /usr/local/xenon/xenon/lib/32/libc.a(lib_a-__call_atexit.o)
                                        0x59d (size before relaxing)
 .debug_str     0x000000000000f1f7       0x3a /usr/local/xenon/xenon/lib/32/libc.a(lib_a-closer.o)
                                        0x590 (size before relaxing)
 .debug_str     0x000000000000f231       0x73 /usr/local/xenon/xenon/lib/32/libc.a(lib_a-ctype_.o)
                                        0x872 (size before relaxing)
 .debug_str     0x000000000000f2a4      0x16b /usr/local/xenon/xenon/lib/32/libc.a(lib_a-dtoa.o)
                                        0xa60 (size before relaxing)
 .debug_str     0x000000000000f40f       0x62 /usr/local/xenon/xenon/lib/32/libc.a(lib_a-fputwc.o)
                                        0x724 (size before relaxing)
 .debug_str     0x000000000000f471       0x6c /usr/local/xenon/xenon/lib/32/libc.a(lib_a-fvwrite.o)
                                        0x75d (size before relaxing)
 .debug_str     0x000000000000f4dd       0x3b /usr/local/xenon/xenon/lib/32/libc.a(lib_a-isattyr.o)
                                        0x593 (size before relaxing)
 .debug_str     0x000000000000f518       0x68 /usr/local/xenon/xenon/lib/32/libc.a(lib_a-localeconv.o)
                                        0x8ec (size before relaxing)
 .debug_str     0x000000000000f580       0x3a /usr/local/xenon/xenon/lib/32/libc.a(lib_a-lseekr.o)
                                        0x597 (size before relaxing)
 .debug_str     0x000000000000f5ba       0x49 /usr/local/xenon/xenon/lib/32/libc.a(lib_a-memchr.o)
                                        0x578 (size before relaxing)
 .debug_str     0x000000000000f603       0x45 /usr/local/xenon/xenon/lib/32/libc.a(lib_a-memmove.o)
                                        0x8a6 (size before relaxing)
 .debug_str     0x000000000000f648       0x94 /usr/local/xenon/xenon/lib/32/libc.a(lib_a-mprec.o)
                                        0xa09 (size before relaxing)
 .debug_str     0x000000000000f6dc       0x3d /usr/local/xenon/xenon/lib/32/libc.a(lib_a-putc.o)
                                        0x6d7 (size before relaxing)
 .debug_str     0x000000000000f719       0x39 /usr/local/xenon/xenon/lib/32/libc.a(lib_a-readr.o)
                                        0x59d (size before relaxing)
 .debug_str     0x000000000000f752       0x43 /usr/local/xenon/xenon/lib/32/libc.a(lib_a-reallocr.o)
                                        0x779 (size before relaxing)
 .debug_str     0x000000000000f795        0xe /usr/local/xenon/xenon/lib/32/libc.a(lib_a-svfiprintf.o)
                                        0xbe2 (size before relaxing)
 .debug_str     0x000000000000f7a3       0x40 /usr/local/xenon/xenon/lib/32/libc.a(lib_a-wbuf.o)
                                        0x6e3 (size before relaxing)
 .debug_str     0x000000000000f7e3       0x44 /usr/local/xenon/xenon/lib/32/libc.a(lib_a-wcrtomb.o)
                                        0x8f7 (size before relaxing)
 .debug_str     0x000000000000f827        0xf /usr/local/xenon/xenon/lib/32/libc.a(lib_a-callocr.o)
                                        0x6e6 (size before relaxing)
 .debug_str     0x000000000000f836      0x1d6 /usr/local/xenon/lib/gcc/xenon/6.3.0/32/libgcc.a(_udivdi3.o)
                                        0x5af (size before relaxing)
 .debug_str     0x000000000000fa0c        0xa /usr/local/xenon/lib/gcc/xenon/6.3.0/32/libgcc.a(_umoddi3.o)
                                        0x5af (size before relaxing)

.comment        0x0000000000000000       0x11
 .comment       0x0000000000000000       0x11 /usr/local/xenon/lib/gcc/xenon/6.3.0/../../../../xenon/lib/../lib/crt1.o
                                         0x12 (size before relaxing)
 .comment       0x0000000000000011       0x12 main.o
 .comment       0x0000000000000011       0x12 /usr/local/xenon/usr/lib/libxenon.a(argv.o)
 .comment       0x0000000000000011       0x12 /usr/local/xenon/usr/lib/libxenon.a(console.o)
 .comment       0x0000000000000011       0x12 /usr/local/xenon/usr/lib/libxenon.a(input.o)
 .comment       0x0000000000000011       0x12 /usr/local/xenon/usr/lib/libxenon.a(newlib.o)
 .comment       0x0000000000000011       0x12 /usr/local/xenon/usr/lib/libxenon.a(xenon_syscalls.o)
 .comment       0x0000000000000011       0x12 /usr/local/xenon/usr/lib/libxenon.a(lib_malloc.o)
 .comment       0x0000000000000011       0x12 /usr/local/xenon/usr/lib/libxenon.a(c_except.o)
 .comment       0x0000000000000011       0x12 /usr/local/xenon/usr/lib/libxenon.a(vm.o)
 .comment       0x0000000000000011       0x12 /usr/local/xenon/usr/lib/libxenon.a(time.o)
 .comment       0x0000000000000011       0x12 /usr/local/xenon/usr/lib/libxenon.a(usbctrl.o)
 .comment       0x0000000000000011       0x12 /usr/local/xenon/usr/lib/libxenon.a(usbd.o)
 .comment       0x0000000000000011       0x12 /usr/local/xenon/usr/lib/libxenon.a(usbdevs.o)
 .comment       0x0000000000000011       0x12 /usr/local/xenon/usr/lib/libxenon.a(usbhid.o)
 .comment       0x0000000000000011       0x12 /usr/local/xenon/usr/lib/libxenon.a(usbhub.o)
 .comment       0x0000000000000011       0x12 /usr/local/xenon/usr/lib/libxenon.a(usbmain.o)
 .comment       0x0000000000000011       0x12 /usr/local/xenon/usr/lib/libxenon.a(tinyehci.o)
 .comment       0x0000000000000011       0x12 /usr/local/xenon/usr/lib/libxenon.a(debug.o)
 .comment       0x0000000000000011       0x12 /usr/local/xenon/usr/lib/libxenon.a(xenon_smc.o)
 .comment       0x0000000000000011       0x12 /usr/local/xenon/usr/lib/libxenon.a(xenon_power.o)
 .comment       0x0000000000000011       0x12 /usr/local/xenon/usr/lib/libxenon.a(xenon_uart.o)
 .comment       0x0000000000000011       0x12 /usr/local/xenon/usr/lib/libxenon.a(xenon_config.o)
 .comment       0x0000000000000011       0x12 /usr/local/xenon/usr/lib/libxenon.a(xenos.o)
 .comment       0x0000000000000011       0x12 /usr/local/xenon/usr/lib/libxenon.a(xenos_edid.o)
 .comment       0x0000000000000011       0x12 /usr/local/xenon/usr/lib/libxenon.a(enet.o)
 .comment       0x0000000000000011       0x12 /usr/local/xenon/usr/lib/libxenon.a(xb360.o)
 .comment       0x0000000000000011       0x12 /usr/local/xenon/usr/lib/libxenon.a(dummy.o)
 .comment       0x0000000000000011       0x12 /usr/local/xenon/usr/lib/libxenon.a(ohci.o)
 .comment       0x0000000000000011       0x12 /usr/local/xenon/usr/lib/libxenon.a(usbdebug.o)
 .comment       0x0000000000000011       0x12 /usr/local/xenon/usr/lib/libxenon.a(usb_os.o)
 .comment       0x0000000000000011       0x12 /usr/local/xenon/usr/lib/libxenon.a(xenon_gpio.o)
 .comment       0x0000000000000011       0x12 /usr/local/xenon/usr/lib/libxenon.a(xenon_sfcx.o)
 .comment       0x0000000000000011       0x12 /usr/local/xenon/usr/lib/libxenon.a(lib_queue.o)
 .comment       0x0000000000000011       0x12 /usr/local/xenon/lib/gcc/xenon/6.3.0/32/libgcc.a(unwind-dw2-fde-dip.o)
 .comment       0x0000000000000011       0x12 /usr/local/xenon/xenon/lib/32/libc.a(lib_a-assert.o)
 .comment       0x0000000000000011       0x12 /usr/local/xenon/xenon/lib/32/libc.a(lib_a-exit.o)
 .comment       0x0000000000000011       0x12 /usr/local/xenon/xenon/lib/32/libc.a(lib_a-fclose.o)
 .comment       0x0000000000000011       0x12 /usr/local/xenon/xenon/lib/32/libc.a(lib_a-fflush.o)
 .comment       0x0000000000000011       0x12 /usr/local/xenon/xenon/lib/32/libc.a(lib_a-findfp.o)
 .comment       0x0000000000000011       0x12 /usr/local/xenon/xenon/lib/32/libc.a(lib_a-fiprintf.o)
 .comment       0x0000000000000011       0x12 /usr/local/xenon/xenon/lib/32/libc.a(lib_a-freer.o)
 .comment       0x0000000000000011       0x12 /usr/local/xenon/xenon/lib/32/libc.a(lib_a-fstatr.o)
 .comment       0x0000000000000011       0x12 /usr/local/xenon/xenon/lib/32/libc.a(lib_a-fwalk.o)
 .comment       0x0000000000000011       0x12 /usr/local/xenon/xenon/lib/32/libc.a(lib_a-impure.o)
 .comment       0x0000000000000011       0x12 /usr/local/xenon/xenon/lib/32/libc.a(lib_a-locale.o)
 .comment       0x0000000000000011       0x12 /usr/local/xenon/xenon/lib/32/libc.a(lib_a-makebuf.o)
 .comment       0x0000000000000011       0x12 /usr/local/xenon/xenon/lib/32/libc.a(lib_a-malloc.o)
 .comment       0x0000000000000011       0x12 /usr/local/xenon/xenon/lib/32/libc.a(lib_a-mallocr.o)
 .comment       0x0000000000000011       0x12 /usr/local/xenon/xenon/lib/32/libc.a(lib_a-mbtowc_r.o)
 .comment       0x0000000000000011       0x12 /usr/local/xenon/xenon/lib/32/libc.a(lib_a-memcmp.o)
 .comment       0x0000000000000011       0x12 /usr/local/xenon/xenon/lib/32/libc.a(lib_a-memcpy.o)
 .comment       0x0000000000000011       0x12 /usr/local/xenon/xenon/lib/32/libc.a(lib_a-memset.o)
 .comment       0x0000000000000011       0x12 /usr/local/xenon/xenon/lib/32/libc.a(lib_a-printf.o)
 .comment       0x0000000000000011       0x12 /usr/local/xenon/xenon/lib/32/libc.a(lib_a-putchar.o)
 .comment       0x0000000000000011       0x12 /usr/local/xenon/xenon/lib/32/libc.a(lib_a-puts.o)
 .comment       0x0000000000000011       0x12 /usr/local/xenon/xenon/lib/32/libc.a(lib_a-reent.o)
 .comment       0x0000000000000011       0x12 /usr/local/xenon/xenon/lib/32/libc.a(lib_a-sbrkr.o)
 .comment       0x0000000000000011       0x12 /usr/local/xenon/xenon/lib/32/libc.a(lib_a-sprintf.o)
 .comment       0x0000000000000011       0x12 /usr/local/xenon/xenon/lib/32/libc.a(lib_a-stdio.o)
 .comment       0x0000000000000011       0x12 /usr/local/xenon/xenon/lib/32/libc.a(lib_a-strcat.o)
 .comment       0x0000000000000011       0x12 /usr/local/xenon/xenon/lib/32/libc.a(lib_a-strcmp.o)
 .comment       0x0000000000000011       0x12 /usr/local/xenon/xenon/lib/32/libc.a(lib_a-strcpy.o)
 .comment       0x0000000000000011       0x12 /usr/local/xenon/xenon/lib/32/libc.a(lib_a-strlen.o)
 .comment       0x0000000000000011       0x12 /usr/local/xenon/xenon/lib/32/libc.a(lib_a-svfprintf.o)
 .comment       0x0000000000000011       0x12 /usr/local/xenon/xenon/lib/32/libc.a(lib_a-vfiprintf.o)
 .comment       0x0000000000000011       0x12 /usr/local/xenon/xenon/lib/32/libc.a(lib_a-vfprintf.o)
 .comment       0x0000000000000011       0x12 /usr/local/xenon/xenon/lib/32/libc.a(lib_a-vsprintf.o)
 .comment       0x0000000000000011       0x12 /usr/local/xenon/xenon/lib/32/libc.a(lib_a-wctomb_r.o)
 .comment       0x0000000000000011       0x12 /usr/local/xenon/xenon/lib/32/libc.a(lib_a-writer.o)
 .comment       0x0000000000000011       0x12 /usr/local/xenon/xenon/lib/32/libc.a(lib_a-wsetup.o)
 .comment       0x0000000000000011       0x12 /usr/local/xenon/xenon/lib/32/libc.a(lib_a-__call_atexit.o)
 .comment       0x0000000000000011       0x12 /usr/local/xenon/xenon/lib/32/libc.a(lib_a-closer.o)
 .comment       0x0000000000000011       0x12 /usr/local/xenon/xenon/lib/32/libc.a(lib_a-ctype_.o)
 .comment       0x0000000000000011       0x12 /usr/local/xenon/xenon/lib/32/libc.a(lib_a-dtoa.o)
 .comment       0x0000000000000011       0x12 /usr/local/xenon/xenon/lib/32/libc.a(lib_a-fputwc.o)
 .comment       0x0000000000000011       0x12 /usr/local/xenon/xenon/lib/32/libc.a(lib_a-fvwrite.o)
 .comment       0x0000000000000011       0x12 /usr/local/xenon/xenon/lib/32/libc.a(lib_a-isattyr.o)
 .comment       0x0000000000000011       0x12 /usr/local/xenon/xenon/lib/32/libc.a(lib_a-localeconv.o)
 .comment       0x0000000000000011       0x12 /usr/local/xenon/xenon/lib/32/libc.a(lib_a-lseekr.o)
 .comment       0x0000000000000011       0x12 /usr/local/xenon/xenon/lib/32/libc.a(lib_a-memchr.o)
 .comment       0x0000000000000011       0x12 /usr/local/xenon/xenon/lib/32/libc.a(lib_a-memmove.o)
 .comment       0x0000000000000011       0x12 /usr/local/xenon/xenon/lib/32/libc.a(lib_a-mprec.o)
 .comment       0x0000000000000011       0x12 /usr/local/xenon/xenon/lib/32/libc.a(lib_a-putc.o)
 .comment       0x0000000000000011       0x12 /usr/local/xenon/xenon/lib/32/libc.a(lib_a-readr.o)
 .comment       0x0000000000000011       0x12 /usr/local/xenon/xenon/lib/32/libc.a(lib_a-reallocr.o)
 .comment       0x0000000000000011       0x12 /usr/local/xenon/xenon/lib/32/libc.a(lib_a-svfiprintf.o)
 .comment       0x0000000000000011       0x12 /usr/local/xenon/xenon/lib/32/libc.a(lib_a-wbuf.o)
 .comment       0x0000000000000011       0x12 /usr/local/xenon/xenon/lib/32/libc.a(lib_a-wcrtomb.o)
 .comment       0x0000000000000011       0x12 /usr/local/xenon/xenon/lib/32/libc.a(lib_a-callocr.o)
 .comment       0x0000000000000011       0x12 /usr/local/xenon/lib/gcc/xenon/6.3.0/32/libgcc.a(_udivdi3.o)
 .comment       0x0000000000000011       0x12 /usr/local/xenon/lib/gcc/xenon/6.3.0/32/libgcc.a(_umoddi3.o)
 .comment       0x0000000000000011       0x12 /usr/local/xenon/lib/gcc/xenon/6.3.0/32/crtend.o

.note.GNU-stack
                0x0000000000000000        0x0
 .note.GNU-stack
                0x0000000000000000        0x0 /usr/local/xenon/lib/gcc/xenon/6.3.0/../../../../xenon/lib/../lib/crt1.o
 .note.GNU-stack
                0x0000000000000000        0x0 main.o
 .note.GNU-stack
                0x0000000000000000        0x0 /usr/local/xenon/usr/lib/libxenon.a(argv.o)
 .note.GNU-stack
                0x0000000000000000        0x0 /usr/local/xenon/usr/lib/libxenon.a(console.o)
 .note.GNU-stack
                0x0000000000000000        0x0 /usr/local/xenon/usr/lib/libxenon.a(input.o)
 .note.GNU-stack
                0x0000000000000000        0x0 /usr/local/xenon/usr/lib/libxenon.a(newlib.o)
 .note.GNU-stack
                0x0000000000000000        0x0 /usr/local/xenon/usr/lib/libxenon.a(xenon_syscalls.o)
 .note.GNU-stack
                0x0000000000000000        0x0 /usr/local/xenon/usr/lib/libxenon.a(lib_malloc.o)
 .note.GNU-stack
                0x0000000000000000        0x0 /usr/local/xenon/usr/lib/libxenon.a(c_except.o)
 .note.GNU-stack
                0x0000000000000000        0x0 /usr/local/xenon/usr/lib/libxenon.a(vm.o)
 .note.GNU-stack
                0x0000000000000000        0x0 /usr/local/xenon/usr/lib/libxenon.a(time.o)
 .note.GNU-stack
                0x0000000000000000        0x0 /usr/local/xenon/usr/lib/libxenon.a(usbctrl.o)
 .note.GNU-stack
                0x0000000000000000        0x0 /usr/local/xenon/usr/lib/libxenon.a(usbd.o)
 .note.GNU-stack
                0x0000000000000000        0x0 /usr/local/xenon/usr/lib/libxenon.a(usbdevs.o)
 .note.GNU-stack
                0x0000000000000000        0x0 /usr/local/xenon/usr/lib/libxenon.a(usbhid.o)
 .note.GNU-stack
                0x0000000000000000        0x0 /usr/local/xenon/usr/lib/libxenon.a(usbhub.o)
 .note.GNU-stack
                0x0000000000000000        0x0 /usr/local/xenon/usr/lib/libxenon.a(usbmain.o)
 .note.GNU-stack
                0x0000000000000000        0x0 /usr/local/xenon/usr/lib/libxenon.a(tinyehci.o)
 .note.GNU-stack
                0x0000000000000000        0x0 /usr/local/xenon/usr/lib/libxenon.a(debug.o)
 .note.GNU-stack
                0x0000000000000000        0x0 /usr/local/xenon/usr/lib/libxenon.a(xenon_smc.o)
 .note.GNU-stack
                0x0000000000000000        0x0 /usr/local/xenon/usr/lib/libxenon.a(xenon_power.o)
 .note.GNU-stack
                0x0000000000000000        0x0 /usr/local/xenon/usr/lib/libxenon.a(xenon_uart.o)
 .note.GNU-stack
                0x0000000000000000        0x0 /usr/local/xenon/usr/lib/libxenon.a(xenon_config.o)
 .note.GNU-stack
                0x0000000000000000        0x0 /usr/local/xenon/usr/lib/libxenon.a(xenos.o)
 .note.GNU-stack
                0x0000000000000000        0x0 /usr/local/xenon/usr/lib/libxenon.a(xenos_edid.o)
 .note.GNU-stack
                0x0000000000000000        0x0 /usr/local/xenon/usr/lib/libxenon.a(enet.o)
 .note.GNU-stack
                0x0000000000000000        0x0 /usr/local/xenon/usr/lib/libxenon.a(xb360.o)
 .note.GNU-stack
                0x0000000000000000        0x0 /usr/local/xenon/usr/lib/libxenon.a(dummy.o)
 .note.GNU-stack
                0x0000000000000000        0x0 /usr/local/xenon/usr/lib/libxenon.a(ohci.o)
 .note.GNU-stack
                0x0000000000000000        0x0 /usr/local/xenon/usr/lib/libxenon.a(usbdebug.o)
 .note.GNU-stack
                0x0000000000000000        0x0 /usr/local/xenon/usr/lib/libxenon.a(usb_os.o)
 .note.GNU-stack
                0x0000000000000000        0x0 /usr/local/xenon/usr/lib/libxenon.a(xenon_gpio.o)
 .note.GNU-stack
                0x0000000000000000        0x0 /usr/local/xenon/usr/lib/libxenon.a(xenon_sfcx.o)
 .note.GNU-stack
                0x0000000000000000        0x0 /usr/local/xenon/usr/lib/libxenon.a(lib_queue.o)
 .note.GNU-stack
                0x0000000000000000        0x0 /usr/local/xenon/lib/gcc/xenon/6.3.0/32/libgcc.a(crtsavgpr.o)
 .note.GNU-stack
                0x0000000000000000        0x0 /usr/local/xenon/lib/gcc/xenon/6.3.0/32/libgcc.a(crtresxgpr.o)
 .note.GNU-stack
                0x0000000000000000        0x0 /usr/local/xenon/lib/gcc/xenon/6.3.0/32/libgcc.a(unwind-dw2-fde-dip.o)
 .note.GNU-stack
                0x0000000000000000        0x0 /usr/local/xenon/xenon/lib/32/libc.a(lib_a-assert.o)
 .note.GNU-stack
                0x0000000000000000        0x0 /usr/local/xenon/xenon/lib/32/libc.a(lib_a-exit.o)
 .note.GNU-stack
                0x0000000000000000        0x0 /usr/local/xenon/xenon/lib/32/libc.a(lib_a-fclose.o)
 .note.GNU-stack
                0x0000000000000000        0x0 /usr/local/xenon/xenon/lib/32/libc.a(lib_a-fflush.o)
 .note.GNU-stack
                0x0000000000000000        0x0 /usr/local/xenon/xenon/lib/32/libc.a(lib_a-findfp.o)
 .note.GNU-stack
                0x0000000000000000        0x0 /usr/local/xenon/xenon/lib/32/libc.a(lib_a-fiprintf.o)
 .note.GNU-stack
                0x0000000000000000        0x0 /usr/local/xenon/xenon/lib/32/libc.a(lib_a-freer.o)
 .note.GNU-stack
                0x0000000000000000        0x0 /usr/local/xenon/xenon/lib/32/libc.a(lib_a-fstatr.o)
 .note.GNU-stack
                0x0000000000000000        0x0 /usr/local/xenon/xenon/lib/32/libc.a(lib_a-fwalk.o)
 .note.GNU-stack
                0x0000000000000000        0x0 /usr/local/xenon/xenon/lib/32/libc.a(lib_a-impure.o)
 .note.GNU-stack
                0x0000000000000000        0x0 /usr/local/xenon/xenon/lib/32/libc.a(lib_a-locale.o)
 .note.GNU-stack
                0x0000000000000000        0x0 /usr/local/xenon/xenon/lib/32/libc.a(lib_a-makebuf.o)
 .note.GNU-stack
                0x0000000000000000        0x0 /usr/local/xenon/xenon/lib/32/libc.a(lib_a-malloc.o)
 .note.GNU-stack
                0x0000000000000000        0x0 /usr/local/xenon/xenon/lib/32/libc.a(lib_a-mallocr.o)
 .note.GNU-stack
                0x0000000000000000        0x0 /usr/local/xenon/xenon/lib/32/libc.a(lib_a-mbtowc_r.o)
 .note.GNU-stack
                0x0000000000000000        0x0 /usr/local/xenon/xenon/lib/32/libc.a(lib_a-memcmp.o)
 .note.GNU-stack
                0x0000000000000000        0x0 /usr/local/xenon/xenon/lib/32/libc.a(lib_a-memcpy.o)
 .note.GNU-stack
                0x0000000000000000        0x0 /usr/local/xenon/xenon/lib/32/libc.a(lib_a-memset.o)
 .note.GNU-stack
                0x0000000000000000        0x0 /usr/local/xenon/xenon/lib/32/libc.a(lib_a-printf.o)
 .note.GNU-stack
                0x0000000000000000        0x0 /usr/local/xenon/xenon/lib/32/libc.a(lib_a-putchar.o)
 .note.GNU-stack
                0x0000000000000000        0x0 /usr/local/xenon/xenon/lib/32/libc.a(lib_a-puts.o)
 .note.GNU-stack
                0x0000000000000000        0x0 /usr/local/xenon/xenon/lib/32/libc.a(lib_a-reent.o)
 .note.GNU-stack
                0x0000000000000000        0x0 /usr/local/xenon/xenon/lib/32/libc.a(lib_a-sbrkr.o)
 .note.GNU-stack
                0x0000000000000000        0x0 /usr/local/xenon/xenon/lib/32/libc.a(lib_a-sprintf.o)
 .note.GNU-stack
                0x0000000000000000        0x0 /usr/local/xenon/xenon/lib/32/libc.a(lib_a-stdio.o)
 .note.GNU-stack
                0x0000000000000000        0x0 /usr/local/xenon/xenon/lib/32/libc.a(lib_a-strcat.o)
 .note.GNU-stack
                0x0000000000000000        0x0 /usr/local/xenon/xenon/lib/32/libc.a(lib_a-strcmp.o)
 .note.GNU-stack
                0x0000000000000000        0x0 /usr/local/xenon/xenon/lib/32/libc.a(lib_a-strcpy.o)
 .note.GNU-stack
                0x0000000000000000        0x0 /usr/local/xenon/xenon/lib/32/libc.a(lib_a-strlen.o)
 .note.GNU-stack
                0x0000000000000000        0x0 /usr/local/xenon/xenon/lib/32/libc.a(lib_a-svfprintf.o)
 .note.GNU-stack
                0x0000000000000000        0x0 /usr/local/xenon/xenon/lib/32/libc.a(lib_a-vfiprintf.o)
 .note.GNU-stack
                0x0000000000000000        0x0 /usr/local/xenon/xenon/lib/32/libc.a(lib_a-vfprintf.o)
 .note.GNU-stack
                0x0000000000000000        0x0 /usr/local/xenon/xenon/lib/32/libc.a(lib_a-vsprintf.o)
 .note.GNU-stack
                0x0000000000000000        0x0 /usr/local/xenon/xenon/lib/32/libc.a(lib_a-wctomb_r.o)
 .note.GNU-stack
                0x0000000000000000        0x0 /usr/local/xenon/xenon/lib/32/libc.a(lib_a-writer.o)
 .note.GNU-stack
                0x0000000000000000        0x0 /usr/local/xenon/xenon/lib/32/libc.a(lib_a-wsetup.o)
 .note.GNU-stack
                0x0000000000000000        0x0 /usr/local/xenon/xenon/lib/32/libc.a(lib_a-__call_atexit.o)
 .note.GNU-stack
                0x0000000000000000        0x0 /usr/local/xenon/xenon/lib/32/libc.a(lib_a-closer.o)
 .note.GNU-stack
                0x0000000000000000        0x0 /usr/local/xenon/xenon/lib/32/libc.a(lib_a-ctype_.o)
 .note.GNU-stack
                0x0000000000000000        0x0 /usr/local/xenon/xenon/lib/32/libc.a(lib_a-dtoa.o)
 .note.GNU-stack
                0x0000000000000000        0x0 /usr/local/xenon/xenon/lib/32/libc.a(lib_a-fputwc.o)
 .note.GNU-stack
                0x0000000000000000        0x0 /usr/local/xenon/xenon/lib/32/libc.a(lib_a-fvwrite.o)
 .note.GNU-stack
                0x0000000000000000        0x0 /usr/local/xenon/xenon/lib/32/libc.a(lib_a-isattyr.o)
 .note.GNU-stack
                0x0000000000000000        0x0 /usr/local/xenon/xenon/lib/32/libc.a(lib_a-localeconv.o)
 .note.GNU-stack
                0x0000000000000000        0x0 /usr/local/xenon/xenon/lib/32/libc.a(lib_a-lseekr.o)
 .note.GNU-stack
                0x0000000000000000        0x0 /usr/local/xenon/xenon/lib/32/libc.a(lib_a-memchr.o)
 .note.GNU-stack
                0x0000000000000000        0x0 /usr/local/xenon/xenon/lib/32/libc.a(lib_a-memmove.o)
 .note.GNU-stack
                0x0000000000000000        0x0 /usr/local/xenon/xenon/lib/32/libc.a(lib_a-mprec.o)
 .note.GNU-stack
                0x0000000000000000        0x0 /usr/local/xenon/xenon/lib/32/libc.a(lib_a-putc.o)
 .note.GNU-stack
                0x0000000000000000        0x0 /usr/local/xenon/xenon/lib/32/libc.a(lib_a-readr.o)
 .note.GNU-stack
                0x0000000000000000        0x0 /usr/local/xenon/xenon/lib/32/libc.a(lib_a-reallocr.o)
 .note.GNU-stack
                0x0000000000000000        0x0 /usr/local/xenon/xenon/lib/32/libc.a(lib_a-svfiprintf.o)
 .note.GNU-stack
                0x0000000000000000        0x0 /usr/local/xenon/xenon/lib/32/libc.a(lib_a-wbuf.o)
 .note.GNU-stack
                0x0000000000000000        0x0 /usr/local/xenon/xenon/lib/32/libc.a(lib_a-wcrtomb.o)
 .note.GNU-stack
                0x0000000000000000        0x0 /usr/local/xenon/xenon/lib/32/libc.a(lib_a-callocr.o)
 .note.GNU-stack
                0x0000000000000000        0x0 /usr/local/xenon/lib/gcc/xenon/6.3.0/32/libgcc.a(_udivdi3.o)
 .note.GNU-stack
                0x0000000000000000        0x0 /usr/local/xenon/lib/gcc/xenon/6.3.0/32/libgcc.a(_umoddi3.o)
 .note.GNU-stack
                0x0000000000000000        0x0 /usr/local/xenon/lib/gcc/xenon/6.3.0/32/crtend.o

.gnu.attributes
                0x0000000000000000       0x10
 .gnu.attributes
                0x0000000000000000       0x10 main.o
 .gnu.attributes
                0x0000000000000010       0x10 /usr/local/xenon/usr/lib/libxenon.a(xenon_smc.o)
 .gnu.attributes
                0x0000000000000020       0x10 /usr/local/xenon/xenon/lib/32/libc.a(lib_a-fiprintf.o)
 .gnu.attributes
                0x0000000000000030       0x10 /usr/local/xenon/xenon/lib/32/libc.a(lib_a-printf.o)
 .gnu.attributes
                0x0000000000000040       0x10 /usr/local/xenon/xenon/lib/32/libc.a(lib_a-sprintf.o)
 .gnu.attributes
                0x0000000000000050       0x10 /usr/local/xenon/xenon/lib/32/libc.a(lib_a-svfprintf.o)
 .gnu.attributes
                0x0000000000000060       0x10 /usr/local/xenon/xenon/lib/32/libc.a(lib_a-vfprintf.o)
 .gnu.attributes
                0x0000000000000070       0x10 /usr/local/xenon/xenon/lib/32/libc.a(lib_a-dtoa.o)
 .gnu.attributes
                0x0000000000000080       0x10 /usr/local/xenon/xenon/lib/32/libc.a(lib_a-mprec.o)

.debug_frame    0x0000000000000000     0x4bbc
 .debug_frame   0x0000000000000000       0x60 /usr/local/xenon/lib/gcc/xenon/6.3.0/../../../../xenon/lib/../lib/crt1.o
 .debug_frame   0x0000000000000060       0xb8 main.o
 .debug_frame   0x0000000000000118       0x20 /usr/local/xenon/usr/lib/libxenon.a(argv.o)
 .debug_frame   0x0000000000000138      0x15c /usr/local/xenon/usr/lib/libxenon.a(console.o)
 .debug_frame   0x0000000000000294       0x60 /usr/local/xenon/usr/lib/libxenon.a(input.o)
 .debug_frame   0x00000000000002f4      0x91c /usr/local/xenon/usr/lib/libxenon.a(newlib.o)
 .debug_frame   0x0000000000000c10      0x120 /usr/local/xenon/usr/lib/libxenon.a(xenon_syscalls.o)
 .debug_frame   0x0000000000000d30       0xa0 /usr/local/xenon/usr/lib/libxenon.a(lib_malloc.o)
 .debug_frame   0x0000000000000dd0       0x80 /usr/local/xenon/usr/lib/libxenon.a(c_except.o)
 .debug_frame   0x0000000000000e50       0xb8 /usr/local/xenon/usr/lib/libxenon.a(vm.o)
 .debug_frame   0x0000000000000f08       0x50 /usr/local/xenon/usr/lib/libxenon.a(time.o)
 .debug_frame   0x0000000000000f58      0x15c /usr/local/xenon/usr/lib/libxenon.a(usbctrl.o)
 .debug_frame   0x00000000000010b4      0x3ec /usr/local/xenon/usr/lib/libxenon.a(usbd.o)
 .debug_frame   0x00000000000014a0       0x40 /usr/local/xenon/usr/lib/libxenon.a(usbdevs.o)
 .debug_frame   0x00000000000014e0       0x84 /usr/local/xenon/usr/lib/libxenon.a(usbhid.o)
 .debug_frame   0x0000000000001564      0x1c0 /usr/local/xenon/usr/lib/libxenon.a(usbhub.o)
 .debug_frame   0x0000000000001724       0xa8 /usr/local/xenon/usr/lib/libxenon.a(usbmain.o)
 .debug_frame   0x00000000000017cc      0x96c /usr/local/xenon/usr/lib/libxenon.a(tinyehci.o)
 .debug_frame   0x0000000000002138       0x90 /usr/local/xenon/usr/lib/libxenon.a(debug.o)
 .debug_frame   0x00000000000021c8      0x268 /usr/local/xenon/usr/lib/libxenon.a(xenon_smc.o)
 .debug_frame   0x0000000000002430      0x154 /usr/local/xenon/usr/lib/libxenon.a(xenon_power.o)
 .debug_frame   0x0000000000002584       0x88 /usr/local/xenon/usr/lib/libxenon.a(xenon_uart.o)
 .debug_frame   0x000000000000260c       0xa4 /usr/local/xenon/usr/lib/libxenon.a(xenon_config.o)
 .debug_frame   0x00000000000026b0      0x20c /usr/local/xenon/usr/lib/libxenon.a(xenos.o)
 .debug_frame   0x00000000000028bc       0xa4 /usr/local/xenon/usr/lib/libxenon.a(xenos_edid.o)
 .debug_frame   0x0000000000002960       0xf0 /usr/local/xenon/usr/lib/libxenon.a(enet.o)
 .debug_frame   0x0000000000002a50      0x25c /usr/local/xenon/usr/lib/libxenon.a(xb360.o)
 .debug_frame   0x0000000000002cac       0x30 /usr/local/xenon/usr/lib/libxenon.a(dummy.o)
 .debug_frame   0x0000000000002cdc      0x204 /usr/local/xenon/usr/lib/libxenon.a(ohci.o)
 .debug_frame   0x0000000000002ee0      0x104 /usr/local/xenon/usr/lib/libxenon.a(usbdebug.o)
 .debug_frame   0x0000000000002fe4      0x11c /usr/local/xenon/usr/lib/libxenon.a(usb_os.o)
 .debug_frame   0x0000000000003100       0x54 /usr/local/xenon/usr/lib/libxenon.a(xenon_gpio.o)
 .debug_frame   0x0000000000003154      0x314 /usr/local/xenon/usr/lib/libxenon.a(xenon_sfcx.o)
 .debug_frame   0x0000000000003468       0x8c /usr/local/xenon/usr/lib/libxenon.a(lib_queue.o)
 .debug_frame   0x00000000000034f4       0x44 /usr/local/xenon/xenon/lib/32/libc.a(lib_a-assert.o)
 .debug_frame   0x0000000000003538       0x30 /usr/local/xenon/xenon/lib/32/libc.a(lib_a-exit.o)
 .debug_frame   0x0000000000003568       0x58 /usr/local/xenon/xenon/lib/32/libc.a(lib_a-fclose.o)
 .debug_frame   0x00000000000035c0       0x9c /usr/local/xenon/xenon/lib/32/libc.a(lib_a-fflush.o)
 .debug_frame   0x000000000000365c      0x154 /usr/local/xenon/xenon/lib/32/libc.a(lib_a-findfp.o)
 .debug_frame   0x00000000000037b0       0x50 /usr/local/xenon/xenon/lib/32/libc.a(lib_a-fiprintf.o)
 .debug_frame   0x0000000000003800       0x88 /usr/local/xenon/xenon/lib/32/libc.a(lib_a-freer.o)
 .debug_frame   0x0000000000003888       0x40 /usr/local/xenon/xenon/lib/32/libc.a(lib_a-fstatr.o)
 .debug_frame   0x00000000000038c8       0x94 /usr/local/xenon/xenon/lib/32/libc.a(lib_a-fwalk.o)
 .debug_frame   0x000000000000395c       0x7c /usr/local/xenon/xenon/lib/32/libc.a(lib_a-locale.o)
 .debug_frame   0x00000000000039d8       0x88 /usr/local/xenon/xenon/lib/32/libc.a(lib_a-makebuf.o)
 .debug_frame   0x0000000000003a60       0x30 /usr/local/xenon/xenon/lib/32/libc.a(lib_a-malloc.o)
 .debug_frame   0x0000000000003a90       0xa4 /usr/local/xenon/xenon/lib/32/libc.a(lib_a-mallocr.o)
 .debug_frame   0x0000000000003b34       0x3c /usr/local/xenon/xenon/lib/32/libc.a(lib_a-mbtowc_r.o)
 .debug_frame   0x0000000000003b70       0x20 /usr/local/xenon/xenon/lib/32/libc.a(lib_a-memcmp.o)
 .debug_frame   0x0000000000003b90       0x20 /usr/local/xenon/xenon/lib/32/libc.a(lib_a-memcpy.o)
 .debug_frame   0x0000000000003bb0       0x20 /usr/local/xenon/xenon/lib/32/libc.a(lib_a-memset.o)
 .debug_frame   0x0000000000003bd0       0x50 /usr/local/xenon/xenon/lib/32/libc.a(lib_a-printf.o)
 .debug_frame   0x0000000000003c20       0x30 /usr/local/xenon/xenon/lib/32/libc.a(lib_a-putchar.o)
 .debug_frame   0x0000000000003c50       0x4c /usr/local/xenon/xenon/lib/32/libc.a(lib_a-puts.o)
 .debug_frame   0x0000000000003c9c       0x68 /usr/local/xenon/xenon/lib/32/libc.a(lib_a-reent.o)
 .debug_frame   0x0000000000003d04       0x40 /usr/local/xenon/xenon/lib/32/libc.a(lib_a-sbrkr.o)
 .debug_frame   0x0000000000003d44       0x58 /usr/local/xenon/xenon/lib/32/libc.a(lib_a-sprintf.o)
 .debug_frame   0x0000000000003d9c       0xb4 /usr/local/xenon/xenon/lib/32/libc.a(lib_a-stdio.o)
 .debug_frame   0x0000000000003e50       0x30 /usr/local/xenon/xenon/lib/32/libc.a(lib_a-strcat.o)
 .debug_frame   0x0000000000003e80       0x20 /usr/local/xenon/xenon/lib/32/libc.a(lib_a-strcmp.o)
 .debug_frame   0x0000000000003ea0       0x20 /usr/local/xenon/xenon/lib/32/libc.a(lib_a-strcpy.o)
 .debug_frame   0x0000000000003ec0       0x20 /usr/local/xenon/xenon/lib/32/libc.a(lib_a-strlen.o)
 .debug_frame   0x0000000000003ee0       0x7c /usr/local/xenon/xenon/lib/32/libc.a(lib_a-svfprintf.o)
 .debug_frame   0x0000000000003f5c      0x10c /usr/local/xenon/xenon/lib/32/libc.a(lib_a-vfiprintf.o)
 .debug_frame   0x0000000000004068       0xb4 /usr/local/xenon/xenon/lib/32/libc.a(lib_a-vfprintf.o)
 .debug_frame   0x000000000000411c       0x40 /usr/local/xenon/xenon/lib/32/libc.a(lib_a-vsprintf.o)
 .debug_frame   0x000000000000415c       0x30 /usr/local/xenon/xenon/lib/32/libc.a(lib_a-wctomb_r.o)
 .debug_frame   0x000000000000418c       0x40 /usr/local/xenon/xenon/lib/32/libc.a(lib_a-writer.o)
 .debug_frame   0x00000000000041cc       0x38 /usr/local/xenon/xenon/lib/32/libc.a(lib_a-wsetup.o)
 .debug_frame   0x0000000000004204       0x64 /usr/local/xenon/xenon/lib/32/libc.a(lib_a-__call_atexit.o)
 .debug_frame   0x0000000000004268       0x40 /usr/local/xenon/xenon/lib/32/libc.a(lib_a-closer.o)
 .debug_frame   0x00000000000042a8       0xc0 /usr/local/xenon/xenon/lib/32/libc.a(lib_a-dtoa.o)
 .debug_frame   0x0000000000004368       0x9c /usr/local/xenon/xenon/lib/32/libc.a(lib_a-fputwc.o)
 .debug_frame   0x0000000000004404       0x94 /usr/local/xenon/xenon/lib/32/libc.a(lib_a-fvwrite.o)
 .debug_frame   0x0000000000004498       0x40 /usr/local/xenon/xenon/lib/32/libc.a(lib_a-isattyr.o)
 .debug_frame   0x00000000000044d8       0x40 /usr/local/xenon/xenon/lib/32/libc.a(lib_a-localeconv.o)
 .debug_frame   0x0000000000004518       0x40 /usr/local/xenon/xenon/lib/32/libc.a(lib_a-lseekr.o)
 .debug_frame   0x0000000000004558       0x20 /usr/local/xenon/xenon/lib/32/libc.a(lib_a-memchr.o)
 .debug_frame   0x0000000000004578       0x20 /usr/local/xenon/xenon/lib/32/libc.a(lib_a-memmove.o)
 .debug_frame   0x0000000000004598      0x328 /usr/local/xenon/xenon/lib/32/libc.a(lib_a-mprec.o)
 .debug_frame   0x00000000000048c0       0x74 /usr/local/xenon/xenon/lib/32/libc.a(lib_a-putc.o)
 .debug_frame   0x0000000000004934       0x40 /usr/local/xenon/xenon/lib/32/libc.a(lib_a-readr.o)
 .debug_frame   0x0000000000004974       0x8c /usr/local/xenon/xenon/lib/32/libc.a(lib_a-reallocr.o)
 .debug_frame   0x0000000000004a00       0xc8 /usr/local/xenon/xenon/lib/32/libc.a(lib_a-svfiprintf.o)
 .debug_frame   0x0000000000004ac8       0x54 /usr/local/xenon/xenon/lib/32/libc.a(lib_a-wbuf.o)
 .debug_frame   0x0000000000004b1c       0x60 /usr/local/xenon/xenon/lib/32/libc.a(lib_a-wcrtomb.o)
 .debug_frame   0x0000000000004b7c       0x40 /usr/local/xenon/xenon/lib/32/libc.a(lib_a-callocr.o)
